(dp0
I1
(dp1
ccopy_reg
_reconstructor
p2
(cshared
Peer
p3
c__builtin__
tuple
p4
(S'91.240.112.10'
p5
I51671
tp6
tp7
Rp8
I1420737753
sg2
(g3
g4
(S'161.22.85.106'
p9
I8444
tp10
tp11
Rp12
I1421624927
sg2
(g3
g4
(S'91.119.237.134'
p13
I8444
tp14
tp15
Rp16
I1420732957
sg2
(g3
g4
(S'179.43.151.228'
p17
I8444
tp18
tp19
Rp20
I1420830814
sg2
(g3
g4
(S'209.159.138.19'
p21
I8444
tp22
tp23
Rp24
I1420839965
sg2
(g3
g4
(S'178.197.225.68'
p25
I8444
tp26
tp27
Rp28
I1420841645
sg2
(g3
g4
(S'2001:0:9d38:6ab8:3083:311b:b00a:5ca9'
p29
I8444
tp30
tp31
Rp32
I1420836473
sg2
(g3
g4
(S'2003:6b:c21:172a:18b3:ced7:6eb4:5b89'
p33
I8444
tp34
tp35
Rp36
I1420834355
sg2
(g3
g4
(S'82.103.132.16'
p37
I8444
tp38
tp39
Rp40
I1420844019
sg2
(g3
g4
(S'86.19.178.210'
p41
I8444
tp42
tp43
Rp44
I1420840662
sg2
(g3
g4
(S'79.228.88.76'
p45
I8444
tp46
tp47
Rp48
I1420834651
sg2
(g3
g4
(S'93.189.2.18'
p49
I49896
tp50
tp51
Rp52
I1421622236
sg2
(g3
g4
(S'78.30.97.114'
p53
I8444
tp54
tp55
Rp56
I1420765230
sg2
(g3
g4
(S'122.173.254.90'
p57
I8444
tp58
tp59
Rp60
I1420837123
sg2
(g3
g4
(S'58.182.204.79'
p61
I8444
tp62
tp63
Rp64
I1420829222
sg2
(g3
g4
(S'78.53.46.53'
p65
I8444
tp66
tp67
Rp68
I1420762913
sg2
(g3
g4
(S'80.220.84.11'
p69
I8444
tp70
tp71
Rp72
I1421630172
sg2
(g3
g4
(S'128.52.128.105'
p73
I9150
tp74
tp75
Rp76
I1420824057
sg2
(g3
g4
(S'162.253.129.170'
p77
I8444
tp78
tp79
Rp80
I1420735273
sg2
(g3
g4
(S'77.219.4.252'
p81
I8444
tp82
tp83
Rp84
I1420814276
sg2
(g3
g4
(S'91.240.112.10'
p85
I63004
tp86
tp87
Rp88
I1420727841
sg2
(g3
g4
(S'46.4.248.19'
p89
I8444
tp90
tp91
Rp92
I1420731929
sg2
(g3
g4
(S'46.115.168.200'
p93
I8444
tp94
tp95
Rp96
I1420835334
sg2
(g3
g4
(S'184.75.213.90'
p97
I8444
tp98
tp99
Rp100
I1420840187
sg2
(g3
g4
(S'5.19.255.216'
p101
I1974
tp102
tp103
Rp104
I1420793420
sg2
(g3
g4
(S'81.209.59.212'
p105
I8444
tp106
tp107
Rp108
I1420835744
sg2
(g3
g4
(S'80.187.102.90'
p109
I8444
tp110
tp111
Rp112
I1420841398
sg2
(g3
g4
(S'176.102.144.2'
p113
I8444
tp114
tp115
Rp116
I1420828294
sg2
(g3
g4
(S'2001:0:5ef5:79fd:8ce:98e:9775:1e36'
p117
I8444
tp118
tp119
Rp120
I1420813718
sg2
(g3
g4
(S'2002:57f3:9a20::57f3:9a20'
p121
I8444
tp122
tp123
Rp124
I1420816292
sg2
(g3
g4
(S'2601:6:4c80:7b0:fc89:af83:229a:8f0'
p125
I8444
tp126
tp127
Rp128
I1420836073
sg2
(g3
g4
(S'94.14.235.139'
p129
I8444
tp130
tp131
Rp132
I1420737940
sg2
(g3
g4
(S'87.155.121.195'
p133
I80
tp134
tp135
Rp136
I1420836723
sg2
(g3
g4
(S'130.83.5.190'
p137
I8444
tp138
tp139
Rp140
I1420827835
sg2
(g3
g4
(S'141.105.68.12'
p141
I8444
tp142
tp143
Rp144
I1420833573
sg2
(g3
g4
(S'62.98.50.195'
p145
I8444
tp146
tp147
Rp148
I1420834196
sg2
(g3
g4
(S'108.253.178.220'
p149
I8444
tp150
tp151
Rp152
I1420730120
sg2
(g3
g4
(S'87.149.70.169'
p153
I8444
tp154
tp155
Rp156
I1421624675
sg2
(g3
g4
(S'85.110.142.174'
p157
I8444
tp158
tp159
Rp160
I1420824719
sg2
(g3
g4
(S'94.254.51.247'
p161
I8444
tp162
tp163
Rp164
I1420832629
sg2
(g3
g4
(S'194.118.215.51'
p165
I8444
tp166
tp167
Rp168
I1420737818
sg2
(g3
g4
(S'184.75.221.186'
p169
I8444
tp170
tp171
Rp172
I1420840153
sg2
(g3
g4
(S'46.114.179.113'
p173
I8444
tp174
tp175
Rp176
I1421621746
sg2
(g3
g4
(S'217.118.78.118'
p177
I8444
tp178
tp179
Rp180
I1420838361
sg2
(g3
g4
(S'77.247.181.163'
p181
I8123
tp182
tp183
Rp184
I1420737824
sg2
(g3
g4
(S'189.133.80.190'
p185
I8444
tp186
tp187
Rp188
I1420759793
sg2
(g3
g4
(S'46.200.231.247'
p189
I8444
tp190
tp191
Rp192
I1420834691
sg2
(g3
g4
(S'46.28.68.158'
p193
I8444
tp194
tp195
Rp196
I1421622804
sg2
(g3
g4
(S'137.63.74.90'
p197
I8446
tp198
tp199
Rp200
I1420831515
sg2
(g3
g4
(S'117.79.232.220'
p201
I8444
tp202
tp203
Rp204
I1420758437
sg2
(g3
g4
(S'95.91.214.118'
p205
I8444
tp206
tp207
Rp208
I1420834333
sg2
(g3
g4
(S'54.154.10.134'
p209
I8444
tp210
tp211
Rp212
I1420816532
sg2
(g3
g4
(S'178.218.32.77'
p213
I8444
tp214
tp215
Rp216
I1420841594
sg2
(g3
g4
(S'195.154.251.25'
p217
I8444
tp218
tp219
Rp220
I1421627099
sg2
(g3
g4
(S'84.144.172.115'
p221
I8444
tp222
tp223
Rp224
I1420733061
sg2
(g3
g4
(S'67.183.236.131'
p225
I8444
tp226
tp227
Rp228
I1420840187
sg2
(g3
g4
(S'188.2.209.122'
p229
I8444
tp230
tp231
Rp232
I1420833492
sg2
(g3
g4
(S'46.21.99.26'
p233
I8445
tp234
tp235
Rp236
I1420759223
sg2
(g3
g4
(S'68.48.201.13'
p237
I8444
tp238
tp239
Rp240
I1420835597
sg2
(g3
g4
(S'106.185.34.43'
p241
I22444
tp242
tp243
Rp244
I1420837239
sg2
(g3
g4
(S'2605:a601:563:5501:39ff:4f0c:c504:e69b'
p245
I8444
tp246
tp247
Rp248
I1420819444
sg2
(g3
g4
(S'109.201.152.205'
p249
I8444
tp250
tp251
Rp252
I1420733458
sg2
(g3
g4
(S'104.245.145.186'
p253
I8444
tp254
tp255
Rp256
I1420840732
sg2
(g3
g4
(S'107.184.27.97'
p257
I20200
tp258
tp259
Rp260
I1420839907
sg2
(g3
g4
(S'114.111.167.96'
p261
I8444
tp262
tp263
Rp264
I1420760153
sg2
(g3
g4
(S'46.182.106.190'
p265
I8445
tp266
tp267
Rp268
I1420835438
sg2
(g3
g4
(S'80.217.64.166'
p269
I8444
tp270
tp271
Rp272
I1421620722
sg2
(g3
g4
(S'86.153.155.203'
p273
I8444
tp274
tp275
Rp276
I1420841344
sg2
(g3
g4
(S'212.21.66.6'
p277
I9002
tp278
tp279
Rp280
I1420841885
sg2
(g3
g4
(S'95.130.15.251'
p281
I8080
tp282
tp283
Rp284
I1420758100
sg2
(g3
g4
(S'95.22.113.215'
p285
I8444
tp286
tp287
Rp288
I1420839257
sg2
(g3
g4
(S'77.95.229.16'
p289
I8445
tp290
tp291
Rp292
I1420829859
sg2
(g3
g4
(S'91.240.112.10'
p293
I50893
tp294
tp295
Rp296
I1420734987
sg2
(g3
g4
(S'121.54.58.241'
p297
I8444
tp298
tp299
Rp300
I1421624127
sg2
(g3
g4
(S'2a02:908:f35c:b040:b581:1c9d:9bf1:7676'
p301
I8444
tp302
tp303
Rp304
I1420838325
sg2
(g3
g4
(S'106.187.52.120'
p305
I8444
tp306
tp307
Rp308
I1420842293
sg2
(g3
g4
(S'213.135.198.106'
p309
I8444
tp310
tp311
Rp312
I1421620725
sg2
(g3
g4
(S'178.62.12.187'
p313
I8444
tp314
tp315
Rp316
I1420843542
sg2
(g3
g4
(S'75.132.89.145'
p317
I8444
tp318
tp319
Rp320
I1421627654
sg2
(g3
g4
(S'178.17.168.22'
p321
I8444
tp322
tp323
Rp324
I1420837908
sg2
(g3
g4
(S'204.210.248.11'
p325
I8444
tp326
tp327
Rp328
I1420819722
sg2
(g3
g4
(S'5.254.97.85'
p329
I8444
tp330
tp331
Rp332
I1420842614
sg2
(g3
g4
(S'109.92.45.241'
p333
I8444
tp334
tp335
Rp336
I1420735761
sg2
(g3
g4
(S'41.248.187.170'
p337
I8444
tp338
tp339
Rp340
I1420834934
sg2
(g3
g4
(S'96.47.226.20'
p341
I8445
tp342
tp343
Rp344
I1420761708
sg2
(g3
g4
(S'158.222.211.81'
p345
I8080
tp346
tp347
Rp348
I1421630159
sg2
(g3
g4
(S'89.31.104.33'
p349
I49395
tp350
tp351
Rp352
I1420734503
sg2
(g3
g4
(S'97.95.172.50'
p353
I8444
tp354
tp355
Rp356
I1420840933
sg2
(g3
g4
(S'184.75.212.130'
p357
I8444
tp358
tp359
Rp360
I1420835747
sg2
(g3
g4
(S'2001:0:5ef5:79fb:3c5f:2a0c:a02c:77ee'
p361
I8444
tp362
tp363
Rp364
I1420824965
sg2
(g3
g4
(S'162.253.128.82'
p365
I8444
tp366
tp367
Rp368
I1421628348
sg2
(g3
g4
(S'2a02:908:f35c:b040:99b3:ea19:4d08:abe1'
p369
I8444
tp370
tp371
Rp372
I1420765188
sg2
(g3
g4
(S'76.103.102.57'
p373
I8444
tp374
tp375
Rp376
I1421623305
sg2
(g3
g4
(S'78.151.160.207'
p377
I8444
tp378
tp379
Rp380
I1420816673
sg2
(g3
g4
(S'24.134.35.230'
p381
I8444
tp382
tp383
Rp384
I1420832930
sg2
(g3
g4
(S'104.245.146.12'
p385
I8444
tp386
tp387
Rp388
I1420835400
sg2
(g3
g4
(S'2607:5300:100::740'
p389
I65535
tp390
tp391
Rp392
I1420758978
sg2
(g3
g4
(S'95.82.201.208'
p393
I8457
tp394
tp395
Rp396
I1420840398
sg2
(g3
g4
(S'62.107.225.221'
p397
I8444
tp398
tp399
Rp400
I1420815863
sg2
(g3
g4
(S'195.154.15.188'
p401
I8444
tp402
tp403
Rp404
I1420732990
sg2
(g3
g4
(S'82.208.216.92'
p405
I8444
tp406
tp407
Rp408
I1420837827
sg2
(g3
g4
(S'149.172.254.61'
p409
I8444
tp410
tp411
Rp412
I1421621118
sg2
(g3
g4
(S'151.228.50.118'
p413
I8444
tp414
tp415
Rp416
I1420843097
sg2
(g3
g4
(S'109.173.110.37'
p417
I8444
tp418
tp419
Rp420
I1420831576
sg2
(g3
g4
(S'92.45.255.137'
p421
I8444
tp422
tp423
Rp424
I1420834307
sg2
(g3
g4
(S'96.47.226.21'
p425
I8444
tp426
tp427
Rp428
I1421626040
sg2
(g3
g4
(S'212.7.208.78'
p429
I8444
tp430
tp431
Rp432
I1420839221
sg2
(g3
g4
(S'212.7.218.60'
p433
I8444
tp434
tp435
Rp436
I1420758494
sg2
(g3
g4
(S'91.67.248.54'
p437
I8444
tp438
tp439
Rp440
I1420735193
sg2
(g3
g4
(S'31.35.173.193'
p441
I8444
tp442
tp443
Rp444
I1420814097
sg2
(g3
g4
(S'76.95.173.78'
p445
I8444
tp446
tp447
Rp448
I1420837115
sg2
(g3
g4
(S'46.4.248.17'
p449
I8444
tp450
tp451
Rp452
I1420731977
sg2
(g3
g4
(S'108.167.43.198'
p453
I8444
tp454
tp455
Rp456
I1421630982
sg2
(g3
g4
(S'27.7.45.7'
p457
I8444
tp458
tp459
Rp460
I1420823542
sg2
(g3
g4
(S'79.236.218.236'
p461
I8444
tp462
tp463
Rp464
I1420733052
sg2
(g3
g4
(S'76.23.22.143'
p465
I8444
tp466
tp467
Rp468
I1420838537
sg2
(g3
g4
(S'146.135.36.172'
p469
I8444
tp470
tp471
Rp472
I1420838386
sg2
(g3
g4
(S'200.8.59.43'
p473
I8444
tp474
tp475
Rp476
I1421625066
sg2
(g3
g4
(S'174.100.85.221'
p477
I8444
tp478
tp479
Rp480
I1420834669
sg2
(g3
g4
(S'178.190.128.104'
p481
I8444
tp482
tp483
Rp484
I1420736538
sg2
(g3
g4
(S'54.174.237.24'
p485
I8444
tp486
tp487
Rp488
I1420728875
sg2
(g3
g4
(S'50.247.101.139'
p489
I8444
tp490
tp491
Rp492
I1420759400
sg2
(g3
g4
(S'2a01:7e00::f03c:91ff:fe69:9912'
p493
I8444
tp494
tp495
Rp496
I1420834574
sg2
(g3
g4
(S'50.141.110.128'
p497
I8444
tp498
tp499
Rp500
I1421622040
sg2
(g3
g4
(S'5.199.142.195'
p501
I8444
tp502
tp503
Rp504
I1420823950
sg2
(g3
g4
(S'104.245.144.246'
p505
I8444
tp506
tp507
Rp508
I1420840735
sg2
(g3
g4
(S'192.99.150.152'
p509
I60787
tp510
tp511
Rp512
I1420823213
sg2
(g3
g4
(S'89.12.25.208'
p513
I8444
tp514
tp515
Rp516
I1420825274
sg2
(g3
g4
(S'176.31.190.158'
p517
I8444
tp518
tp519
Rp520
I1421619781
sg2
(g3
g4
(S'150.101.230.179'
p521
I8444
tp522
tp523
Rp524
I1420737374
sg2
(g3
g4
(S'89.31.118.251'
p525
I8444
tp526
tp527
Rp528
I1420826701
sg2
(g3
g4
(S'154.35.132.83'
p529
I9004
tp530
tp531
Rp532
I1420826000
sg2
(g3
g4
(S'96.44.71.188'
p533
I8444
tp534
tp535
Rp536
I1420757404
sg2
(g3
g4
(S'5.135.166.102'
p537
I8444
tp538
tp539
Rp540
I1420838370
sg2
(g3
g4
(S'192.99.150.152'
p541
I60003
tp542
tp543
Rp544
I1420823093
sg2
(g3
g4
(S'178.92.24.201'
p545
I8444
tp546
tp547
Rp548
I1420837764
sg2
(g3
g4
(S'68.82.252.50'
p549
I8444
tp550
tp551
Rp552
I1421624560
sg2
(g3
g4
(S'184.75.212.10'
p553
I8446
tp554
tp555
Rp556
I1420736401
sg2
(g3
g4
(S'118.186.239.79'
p557
I8444
tp558
tp559
Rp560
I1420823203
sg2
(g3
g4
(S'91.185.200.222'
p561
I8444
tp562
tp563
Rp564
I1420833995
sg2
(g3
g4
(S'188.109.209.109'
p565
I8444
tp566
tp567
Rp568
I1420761600
sg2
(g3
g4
(S'95.130.15.97'
p569
I8080
tp570
tp571
Rp572
I1420816643
sg2
(g3
g4
(S'95.91.214.112'
p573
I8444
tp574
tp575
Rp576
I1420734280
sg2
(g3
g4
(S'54.174.202.103'
p577
I8444
tp578
tp579
Rp580
I1420825840
sg2
(g3
g4
(S'176.126.252.12'
p581
I8444
tp582
tp583
Rp584
I1420843034
sg2
(g3
g4
(S'88.7.203.202'
p585
I8444
tp586
tp587
Rp588
I1420837526
sg2
(g3
g4
(S'85.93.228.169'
p589
I8444
tp590
tp591
Rp592
I1420840389
sg2
(g3
g4
(S'109.162.188.127'
p593
I8444
tp594
tp595
Rp596
I1420734810
sg2
(g3
g4
(S'92.25.78.126'
p597
I8444
tp598
tp599
Rp600
I1421621242
sg2
(g3
g4
(S'91.240.112.10'
p601
I50859
tp602
tp603
Rp604
I1420734883
sg2
(g3
g4
(S'37.187.239.191'
p605
I8444
tp606
tp607
Rp608
I1420834614
sg2
(g3
g4
(S'5.165.79.67'
p609
I8444
tp610
tp611
Rp612
I1420837973
sg2
(g3
g4
(S'183.171.185.29'
p613
I8444
tp614
tp615
Rp616
I1420840983
sg2
(g3
g4
(S'134.119.13.240'
p617
I8444
tp618
tp619
Rp620
I1421628464
sg2
(g3
g4
(S'130.126.229.98'
p621
I8444
tp622
tp623
Rp624
I1420834440
sg2
(g3
g4
(S'195.182.154.234'
p625
I8444
tp626
tp627
Rp628
I1420833517
sg2
(g3
g4
(S'178.125.52.105'
p629
I8444
tp630
tp631
Rp632
I1420829841
sg2
(g3
g4
(S'86.24.43.179'
p633
I8444
tp634
tp635
Rp636
I1420757445
sg2
(g3
g4
(S'71.232.141.28'
p637
I8444
tp638
tp639
Rp640
I1420738015
sg2
(g3
g4
(S'2601:7:2280:e6b:b55d:8b31:6726:ead8'
p641
I8444
tp642
tp643
Rp644
I1420834576
sg2
(g3
g4
(S'87.67.134.159'
p645
I8444
tp646
tp647
Rp648
I1420759997
sg2
(g3
g4
(S'146.199.178.0'
p649
I8444
tp650
tp651
Rp652
I1420830684
sg2
(g3
g4
(S'95.19.85.140'
p653
I8444
tp654
tp655
Rp656
I1420814926
sg2
(g3
g4
(S'212.21.66.6'
p657
I26763
tp658
tp659
Rp660
I1420757378
sg2
(g3
g4
(S'134.82.86.15'
p661
I8444
tp662
tp663
Rp664
I1420836616
sg2
(g3
g4
(S'92.211.43.100'
p665
I8444
tp666
tp667
Rp668
I1420726513
sg2
(g3
g4
(S'162.253.130.194'
p669
I8444
tp670
tp671
Rp672
I1420818291
sg2
(g3
g4
(S'90.220.124.184'
p673
I8444
tp674
tp675
Rp676
I1420818510
sg2
(g3
g4
(S'93.115.92.207'
p677
I8444
tp678
tp679
Rp680
I1421624195
sg2
(g3
g4
(S'186.81.224.8'
p681
I8444
tp682
tp683
Rp684
I1420730533
sg2
(g3
g4
(S'2001:a60:1229:5c01:b0b6:6055:45b5:723d'
p685
I8444
tp686
tp687
Rp688
I1420734292
sg2
(g3
g4
(S'5.196.178.73'
p689
I22444
tp690
tp691
Rp692
I1420832161
sg2
(g3
g4
(S'79.225.61.176'
p693
I8444
tp694
tp695
Rp696
I1420737422
sg2
(g3
g4
(S'204.8.156.142'
p697
I443
tp698
tp699
Rp700
I1420838254
sg2
(g3
g4
(S'2.184.50.202'
p701
I8444
tp702
tp703
Rp704
I1420735307
sg2
(g3
g4
(S'172.56.9.171'
p705
I8444
tp706
tp707
Rp708
I1420820902
sg2
(g3
g4
(S'46.140.111.85'
p709
I8448
tp710
tp711
Rp712
I1420840410
sg2
(g3
g4
(S'212.159.190.18'
p713
I8444
tp714
tp715
Rp716
I1420840433
sg2
(g3
g4
(S'89.105.197.130'
p717
I9150
tp718
tp719
Rp720
I1420734645
sg2
(g3
g4
(S'98.254.188.45'
p721
I8444
tp722
tp723
Rp724
I1421620051
sg2
(g3
g4
(S'190.137.166.17'
p725
I8444
tp726
tp727
Rp728
I1420727848
sg2
(g3
g4
(S'79.255.99.85'
p729
I8444
tp730
tp731
Rp732
I1420737948
sg2
(g3
g4
(S'184.61.209.123'
p733
I8444
tp734
tp735
Rp736
I1420843508
sg2
(g3
g4
(S'62.143.82.220'
p737
I8444
tp738
tp739
Rp740
I1421621262
sg2
(g3
g4
(S'188.138.39.4'
p741
I8444
tp742
tp743
Rp744
I1420843162
sg2
(g3
g4
(S'67.184.57.106'
p745
I8444
tp746
tp747
Rp748
I1420835925
sg2
(g3
g4
(S'91.240.112.10'
p749
I56702
tp750
tp751
Rp752
I1420826116
sg2
(g3
g4
(S'79.134.234.200'
p753
I8444
tp754
tp755
Rp756
I1420840411
sg2
(g3
g4
(S'184.75.212.226'
p757
I8444
tp758
tp759
Rp760
I1420839769
sg2
(g3
g4
(S'98.196.5.210'
p761
I8444
tp762
tp763
Rp764
I1420814404
sg2
(g3
g4
(S'94.210.190.44'
p765
I8444
tp766
tp767
Rp768
I1420825548
sg2
(g3
g4
(S'87.97.58.49'
p769
I8444
tp770
tp771
Rp772
I1420833954
sg2
(g3
g4
(S'104.245.146.102'
p773
I8446
tp774
tp775
Rp776
I1420831508
sg2
(g3
g4
(S'186.48.60.205'
p777
I8444
tp778
tp779
Rp780
I1420761902
sg2
(g3
g4
(S'82.158.193.51'
p781
I8444
tp782
tp783
Rp784
I1421629268
sg2
(g3
g4
(S'84.211.103.230'
p785
I8445
tp786
tp787
Rp788
I1420842176
sg2
(g3
g4
(S'166.70.207.2'
p789
I9150
tp790
tp791
Rp792
I1420833479
sg2
(g3
g4
(S'80.42.145.157'
p793
I8444
tp794
tp795
Rp796
I1420840769
sg2
(g3
g4
(S'82.211.223.3'
p797
I9006
tp798
tp799
Rp800
I1420837489
sg2
(g3
g4
(S'188.99.19.205'
p801
I8444
tp802
tp803
Rp804
I1421627190
sg2
(g3
g4
(S'178.172.194.89'
p805
I8444
tp806
tp807
Rp808
I1420839550
sg2
(g3
g4
(S'104.245.146.70'
p809
I8444
tp810
tp811
Rp812
I1420842494
sg2
(g3
g4
(S'79.134.235.134'
p813
I8444
tp814
tp815
Rp816
I1420734118
sg2
(g3
g4
(S'188.167.240.154'
p817
I8444
tp818
tp819
Rp820
I1420833565
sg2
(g3
g4
(S'109.111.7.254'
p821
I8444
tp822
tp823
Rp824
I1420819038
sg2
(g3
g4
(S'49.212.194.113'
p825
I8444
tp826
tp827
Rp828
I1420833434
sg2
(g3
g4
(S'91.202.181.131'
p829
I8445
tp830
tp831
Rp832
I1421620935
sg2
(g3
g4
(S'77.244.67.184'
p833
I8444
tp834
tp835
Rp836
I1420830532
sg2
(g3
g4
(S'87.197.151.160'
p837
I8444
tp838
tp839
Rp840
I1420824510
sg2
(g3
g4
(S'71.22.240.129'
p841
I8444
tp842
tp843
Rp844
I1421620455
sg2
(g3
g4
(S'84.158.152.247'
p845
I8444
tp846
tp847
Rp848
I1420842017
sg2
(g3
g4
(S'106.39.255.147'
p849
I8444
tp850
tp851
Rp852
I1421624263
sg2
(g3
g4
(S'77.95.229.21'
p853
I8444
tp854
tp855
Rp856
I1420838729
sg2
(g3
g4
(S'162.253.131.42'
p857
I8444
tp858
tp859
Rp860
I1420835740
sg2
(g3
g4
(S'194.230.155.139'
p861
I8444
tp862
tp863
Rp864
I1420833562
sg2
(g3
g4
(S'95.91.226.245'
p865
I8444
tp866
tp867
Rp868
I1420831471
sg2
(g3
g4
(S'76.103.155.5'
p869
I8444
tp870
tp871
Rp872
I1420736483
sg2
(g3
g4
(S'109.167.3.252'
p873
I8444
tp874
tp875
Rp876
I1420836754
sg2
(g3
g4
(S'2003:62:4f61:b615:6112:e387:b51c:fda5'
p877
I8444
tp878
tp879
Rp880
I1420831428
sg2
(g3
g4
(S'117.214.208.134'
p881
I8444
tp882
tp883
Rp884
I1420818181
sg2
(g3
g4
(S'24.23.254.97'
p885
I8444
tp886
tp887
Rp888
I1420737663
sg2
(g3
g4
(S'212.251.28.25'
p889
I8444
tp890
tp891
Rp892
I1420734746
sg2
(g3
g4
(S'2601:8:8c00:4e6:a8f5:708b:f745:abd2'
p893
I8444
tp894
tp895
Rp896
I1421628995
sg2
(g3
g4
(S'106.39.255.248'
p897
I8444
tp898
tp899
Rp900
I1420835179
sg2
(g3
g4
(S'62.210.74.143'
p901
I22444
tp902
tp903
Rp904
I1420826688
sg2
(g3
g4
(S'88.150.22.90'
p905
I8444
tp906
tp907
Rp908
I1420734488
sg2
(g3
g4
(S'194.150.168.79'
p909
I8080
tp910
tp911
Rp912
I1421621878
sg2
(g3
g4
(S'98.28.102.70'
p913
I8444
tp914
tp915
Rp916
I1420841524
sg2
(g3
g4
(S'128.71.51.62'
p917
I8444
tp918
tp919
Rp920
I1420832034
sg2
(g3
g4
(S'173.162.127.74'
p921
I8444
tp922
tp923
Rp924
I1421623285
sg2
(g3
g4
(S'2a01:240:f0ff:1:e561:2fe5:1aa0:77'
p925
I8444
tp926
tp927
Rp928
I1420734478
sg2
(g3
g4
(S'70.68.97.142'
p929
I8444
tp930
tp931
Rp932
I1421629261
sg2
(g3
g4
(S'213.132.48.105'
p933
I8444
tp934
tp935
Rp936
I1420839831
sg2
(g3
g4
(S'183.171.185.19'
p937
I8444
tp938
tp939
Rp940
I1420759624
sg2
(g3
g4
(S'212.227.38.247'
p941
I9002
tp942
tp943
Rp944
I1421629132
sg2
(g3
g4
(S'95.112.130.58'
p945
I8444
tp946
tp947
Rp948
I1420725994
sg2
(g3
g4
(S'74.131.230.147'
p949
I8444
tp950
tp951
Rp952
I1420829263
sg2
(g3
g4
(S'93.189.2.18'
p953
I64272
tp954
tp955
Rp956
I1421631012
sg2
(g3
g4
(S'114.47.187.78'
p957
I8444
tp958
tp959
Rp960
I1420729893
sg2
(g3
g4
(S'91.240.112.10'
p961
I51694
tp962
tp963
Rp964
I1420737791
sg2
(g3
g4
(S'151.226.104.186'
p965
I8444
tp966
tp967
Rp968
I1421629697
sg2
(g3
g4
(S'109.201.143.24'
p969
I8444
tp970
tp971
Rp972
I1420830081
sg2
(g3
g4
(S'91.240.112.10'
p973
I54828
tp974
tp975
Rp976
I1420820050
sg2
(g3
g4
(S'94.216.61.123'
p977
I8444
tp978
tp979
Rp980
I1420765063
sg2
(g3
g4
(S'207.216.154.231'
p981
I8444
tp982
tp983
Rp984
I1420826500
sg2
(g3
g4
(S'167.88.40.152'
p985
I9002
tp986
tp987
Rp988
I1420733619
sg2
(g3
g4
(S'5.13.198.218'
p989
I8444
tp990
tp991
Rp992
I1420736623
sg2
(g3
g4
(S'91.240.112.10'
p993
I37165
tp994
tp995
Rp996
I1420816993
sg2
(g3
g4
(S'185.61.149.208'
p997
I8444
tp998
tp999
Rp1000
I1420732837
sg2
(g3
g4
(S'46.165.208.107'
p1001
I8444
tp1002
tp1003
Rp1004
I1421631041
sg2
(g3
g4
(S'37.48.74.83'
p1005
I8444
tp1006
tp1007
Rp1008
I1420758128
sg2
(g3
g4
(S'92.203.7.34'
p1009
I8444
tp1010
tp1011
Rp1012
I1420844772
sg2
(g3
g4
(S'171.25.193.235'
p1013
I8444
tp1014
tp1015
Rp1016
I1420841036
sg2
(g3
g4
(S'162.219.178.162'
p1017
I8444
tp1018
tp1019
Rp1020
I1420843155
sg2
(g3
g4
(S'82.106.126.23'
p1021
I8444
tp1022
tp1023
Rp1024
I1420829419
sg2
(g3
g4
(S'2.110.199.2'
p1025
I8444
tp1026
tp1027
Rp1028
I1421626031
sg2
(g3
g4
(S'188.99.27.191'
p1029
I8444
tp1030
tp1031
Rp1032
I1420735991
sg2
(g3
g4
(S'162.253.129.162'
p1033
I8444
tp1034
tp1035
Rp1036
I1420737009
sg2
(g3
g4
(S'188.104.40.85'
p1037
I8444
tp1038
tp1039
Rp1040
I1420815139
sg2
(g3
g4
(S'2003:58:4f28:37d7:8872:9366:d211:1874'
p1041
I8444
tp1042
tp1043
Rp1044
I1420725625
sg2
(g3
g4
(S'77.247.181.162'
p1045
I443
tp1046
tp1047
Rp1048
I1420839105
sg2
(g3
g4
(S'148.122.44.138'
p1049
I8444
tp1050
tp1051
Rp1052
I1420757284
sg2
(g3
g4
(S'96.44.189.100'
p1053
I8080
tp1054
tp1055
Rp1056
I1421627695
sg2
(g3
g4
(S'54.76.106.248'
p1057
I8444
tp1058
tp1059
Rp1060
I1420844022
sg2
(g3
g4
(S'96.47.226.20'
p1061
I26763
tp1062
tp1063
Rp1064
I1420835161
sg2
(g3
g4
(S'93.189.2.18'
p1065
I52614
tp1066
tp1067
Rp1068
I1421622962
sg2
(g3
g4
(S'212.192.74.100'
p1069
I8444
tp1070
tp1071
Rp1072
I1420830000
sg2
(g3
g4
(S'95.211.196.209'
p1073
I8621
tp1074
tp1075
Rp1076
I1421628089
sg2
(g3
g4
(S'96.47.226.22'
p1077
I8080
tp1078
tp1079
Rp1080
I1420826746
sg2
(g3
g4
(S'95.89.68.46'
p1081
I8444
tp1082
tp1083
Rp1084
I1420842277
sg2
(g3
g4
(S'178.78.255.211'
p1085
I8444
tp1086
tp1087
Rp1088
I1420831595
sg2
(g3
g4
(S'93.189.2.18'
p1089
I60149
tp1090
tp1091
Rp1092
I1421620425
sg2
(g3
g4
(S'184.75.211.249'
p1093
I8446
tp1094
tp1095
Rp1096
I1420831497
sg2
(g3
g4
(S'190.134.85.242'
p1097
I8444
tp1098
tp1099
Rp1100
I1420834961
sg2
(g3
g4
(S'54.77.247.141'
p1101
I8444
tp1102
tp1103
Rp1104
I1420841899
sg2
(g3
g4
(S'84.175.162.215'
p1105
I8444
tp1106
tp1107
Rp1108
I1421629848
sg2
(g3
g4
(S'77.247.181.163'
p1109
I8080
tp1110
tp1111
Rp1112
I1421619624
sg2
(g3
g4
(S'91.240.112.10'
p1113
I55171
tp1114
tp1115
Rp1116
I1420821419
sg2
(g3
g4
(S'46.166.186.219'
p1117
I8444
tp1118
tp1119
Rp1120
I1420827265
sg2
(g3
g4
(S'180.147.133.64'
p1121
I8444
tp1122
tp1123
Rp1124
I1421623640
sg2
(g3
g4
(S'209.234.140.58'
p1125
I8444
tp1126
tp1127
Rp1128
I1420759282
sg2
(g3
g4
(S'70.40.55.192'
p1129
I8444
tp1130
tp1131
Rp1132
I1420736630
sg2
(g3
g4
(S'137.63.71.158'
p1133
I8444
tp1134
tp1135
Rp1136
I1421620063
sg2
(g3
g4
(S'91.240.112.10'
p1137
I55533
tp1138
tp1139
Rp1140
I1420821949
sg2
(g3
g4
(S'104.245.144.106'
p1141
I8444
tp1142
tp1143
Rp1144
I1420823401
sg2
(g3
g4
(S'199.254.238.244'
p1145
I8444
tp1146
tp1147
Rp1148
I1420836024
sg2
(g3
g4
(S'167.88.40.152'
p1149
I8444
tp1150
tp1151
Rp1152
I1420840387
sg2
(g3
g4
(S'2a02:8109:8b40:a84:ac2a:1391:af1:b2fb'
p1153
I8444
tp1154
tp1155
Rp1156
I1420837951
sg2
(g3
g4
(S'79.120.10.98'
p1157
I8444
tp1158
tp1159
Rp1160
I1420761598
sg2
(g3
g4
(S'75.73.44.141'
p1161
I8444
tp1162
tp1163
Rp1164
I1420842279
sg2
(g3
g4
(S'95.210.196.82'
p1165
I8444
tp1166
tp1167
Rp1168
I1420761617
sg2
(g3
g4
(S'201.240.68.252'
p1169
I8444
tp1170
tp1171
Rp1172
I1420842214
sg2
(g3
g4
(S'50.135.240.196'
p1173
I8444
tp1174
tp1175
Rp1176
I1421629772
sg2
(g3
g4
(S'104.245.145.2'
p1177
I8444
tp1178
tp1179
Rp1180
I1421619599
sg2
(g3
g4
(S'162.253.129.130'
p1181
I8444
tp1182
tp1183
Rp1184
I1420840150
sg2
(g3
g4
(S'96.44.140.242'
p1185
I8444
tp1186
tp1187
Rp1188
I1420844437
sg2
(g3
g4
(S'207.181.228.82'
p1189
I8444
tp1190
tp1191
Rp1192
I1421624148
sg2
(g3
g4
(S'78.33.219.164'
p1193
I8444
tp1194
tp1195
Rp1196
I1420844078
sg2
(g3
g4
(S'2003:46:87b:dc01:8c0c:d71a:68df:67e6'
p1197
I8444
tp1198
tp1199
Rp1200
I1420730222
sg2
(g3
g4
(S'2001:a60:178a:4301:3c24:15dc:46b5:c0c4'
p1201
I8444
tp1202
tp1203
Rp1204
I1420833345
sg2
(g3
g4
(S'79.240.233.43'
p1205
I8444
tp1206
tp1207
Rp1208
I1420829821
sg2
(g3
g4
(S'119.15.121.30'
p1209
I8444
tp1210
tp1211
Rp1212
I1420842862
sg2
(g3
g4
(S'184.75.211.195'
p1213
I8444
tp1214
tp1215
Rp1216
I1420842431
sg2
(g3
g4
(S'83.237.51.14'
p1217
I8444
tp1218
tp1219
Rp1220
I1420838735
sg2
(g3
g4
(S'91.240.112.10'
p1221
I51038
tp1222
tp1223
Rp1224
I1420735672
sg2
(g3
g4
(S'184.75.214.74'
p1225
I8444
tp1226
tp1227
Rp1228
I1420764674
sg2
(g3
g4
(S'93.230.25.174'
p1229
I8444
tp1230
tp1231
Rp1232
I1420736664
sg2
(g3
g4
(S'162.219.176.226'
p1233
I8444
tp1234
tp1235
Rp1236
I1420815000
sg2
(g3
g4
(S'176.126.252.11'
p1237
I9003
tp1238
tp1239
Rp1240
I1421620476
sg2
(g3
g4
(S'80.134.90.66'
p1241
I8444
tp1242
tp1243
Rp1244
I1420835996
sg2
(g3
g4
(S'2a02:810d:280:c90:996e:7120:7893:b7af'
p1245
I8444
tp1246
tp1247
Rp1248
I1420736021
sg2
(g3
g4
(S'178.190.147.153'
p1249
I8444
tp1250
tp1251
Rp1252
I1420737090
sg2
(g3
g4
(S'118.186.220.48'
p1253
I8444
tp1254
tp1255
Rp1256
I1420764637
sg2
(g3
g4
(S'2001:0:5ef5:79fb:345d:166f:a8be:66a5'
p1257
I8444
tp1258
tp1259
Rp1260
I1421627874
sg2
(g3
g4
(S'65.206.95.146'
p1261
I8080
tp1262
tp1263
Rp1264
I1420827567
sg2
(g3
g4
(S'94.242.239.179'
p1265
I8444
tp1266
tp1267
Rp1268
I1420832868
sg2
(g3
g4
(S'190.123.46.4'
p1269
I8444
tp1270
tp1271
Rp1272
I1420737458
sg2
(g3
g4
(S'37.209.138.93'
p1273
I8444
tp1274
tp1275
Rp1276
I1420826748
sg2
(g3
g4
(S'37.48.65.168'
p1277
I8444
tp1278
tp1279
Rp1280
I1421629619
sg2
(g3
g4
(S'2a02:810d:280:c90:1120:897c:a8c1:d2e2'
p1281
I8444
tp1282
tp1283
Rp1284
I1420737666
sg2
(g3
g4
(S'91.62.16.176'
p1285
I8444
tp1286
tp1287
Rp1288
I1420736323
sg2
(g3
g4
(S'162.210.197.234'
p1289
I8444
tp1290
tp1291
Rp1292
I1420758535
sg2
(g3
g4
(S'83.160.75.134'
p1293
I8444
tp1294
tp1295
Rp1296
I1420838608
sg2
(g3
g4
(S'71.14.88.187'
p1297
I8444
tp1298
tp1299
Rp1300
I1420819857
sg2
(g3
g4
(S'192.99.150.152'
p1301
I60492
tp1302
tp1303
Rp1304
I1420837777
sg2
(g3
g4
(S'24.111.161.81'
p1305
I8444
tp1306
tp1307
Rp1308
I1420819272
sg2
(g3
g4
(S'183.171.185.5'
p1309
I8444
tp1310
tp1311
Rp1312
I1420840671
sg2
(g3
g4
(S'24.108.1.17'
p1313
I8444
tp1314
tp1315
Rp1316
I1420760844
sg2
(g3
g4
(S'178.198.136.155'
p1317
I8444
tp1318
tp1319
Rp1320
I1420844657
sg2
(g3
g4
(S'104.245.146.46'
p1321
I8444
tp1322
tp1323
Rp1324
I1420840733
sg2
(g3
g4
(S'83.233.136.220'
p1325
I8444
tp1326
tp1327
Rp1328
I1420840367
sg2
(g3
g4
(S'194.150.168.95'
p1329
I8444
tp1330
tp1331
Rp1332
I1421624204
sg2
(g3
g4
(S'141.100.108.230'
p1333
I8444
tp1334
tp1335
Rp1336
I1421619641
sg2
(g3
g4
(S'95.130.11.147'
p1337
I8444
tp1338
tp1339
Rp1340
I1420835197
sg2
(g3
g4
(S'91.240.112.10'
p1341
I54799
tp1342
tp1343
Rp1344
I1420819934
sg2
(g3
g4
(S'81.17.25.98'
p1345
I8444
tp1346
tp1347
Rp1348
I1420737762
sg2
(g3
g4
(S'178.26.239.233'
p1349
I8444
tp1350
tp1351
Rp1352
I1420730884
sg2
(g3
g4
(S'213.87.129.60'
p1353
I8444
tp1354
tp1355
Rp1356
I1420825193
sg2
(g3
g4
(S'84.109.65.204'
p1357
I9152
tp1358
tp1359
Rp1360
I1420755902
sg2
(g3
g4
(S'184.75.212.82'
p1361
I8444
tp1362
tp1363
Rp1364
I1421624534
sg2
(g3
g4
(S'2604:2000:c5ad:de01:d15:ee2d:952a:fd1d'
p1365
I8444
tp1366
tp1367
Rp1368
I1420833358
sg2
(g3
g4
(S'71.53.101.117'
p1369
I8444
tp1370
tp1371
Rp1372
I1420765943
sg2
(g3
g4
(S'5.254.97.70'
p1373
I8444
tp1374
tp1375
Rp1376
I1420734971
sg2
(g3
g4
(S'185.17.184.228'
p1377
I8444
tp1378
tp1379
Rp1380
I1420841254
sg2
(g3
g4
(S'91.65.80.67'
p1381
I8444
tp1382
tp1383
Rp1384
I1420837963
sg2
(g3
g4
(S'194.230.159.246'
p1385
I8444
tp1386
tp1387
Rp1388
I1420818553
sg2
(g3
g4
(S'95.119.60.224'
p1389
I8444
tp1390
tp1391
Rp1392
I1420816440
sg2
(g3
g4
(S'209.135.132.136'
p1393
I8444
tp1394
tp1395
Rp1396
I1420836593
sg2
(g3
g4
(S'91.77.119.11'
p1397
I8444
tp1398
tp1399
Rp1400
I1420737606
sg2
(g3
g4
(S'178.162.205.21'
p1401
I8444
tp1402
tp1403
Rp1404
I1420840359
sg2
(g3
g4
(S'41.248.199.106'
p1405
I8444
tp1406
tp1407
Rp1408
I1421623094
sg2
(g3
g4
(S'81.7.8.101'
p1409
I8444
tp1410
tp1411
Rp1412
I1420834180
sg2
(g3
g4
(S'204.8.156.142'
p1413
I9087
tp1414
tp1415
Rp1416
I1420835135
sg2
(g3
g4
(S'162.253.129.58'
p1417
I8444
tp1418
tp1419
Rp1420
I1421626119
sg2
(g3
g4
(S'195.137.106.175'
p1421
I8444
tp1422
tp1423
Rp1424
I1420820345
sg2
(g3
g4
(S'77.7.102.160'
p1425
I8444
tp1426
tp1427
Rp1428
I1420757475
sg2
(g3
g4
(S'79.250.69.250'
p1429
I8444
tp1430
tp1431
Rp1432
I1420725219
sg2
(g3
g4
(S'86.94.161.135'
p1433
I8444
tp1434
tp1435
Rp1436
I1420841648
sg2
(g3
g4
(S'104.245.144.250'
p1437
I8444
tp1438
tp1439
Rp1440
I1420735248
sg2
(g3
g4
(S'31.35.173.193'
p1441
I50000
tp1442
tp1443
Rp1444
I1420837213
sg2
(g3
g4
(S'46.165.196.184'
p1445
I8123
tp1446
tp1447
Rp1448
I1420737953
sg2
(g3
g4
(S'92.42.30.169'
p1449
I8444
tp1450
tp1451
Rp1452
I1420834500
sg2
(g3
g4
(S'114.111.167.156'
p1453
I8444
tp1454
tp1455
Rp1456
I1420730023
sg2
(g3
g4
(S'185.34.33.2'
p1457
I8444
tp1458
tp1459
Rp1460
I1420820126
sg2
(g3
g4
(S'206.124.134.170'
p1461
I8444
tp1462
tp1463
Rp1464
I1421620772
sg2
(g3
g4
(S'106.39.255.220'
p1465
I8444
tp1466
tp1467
Rp1468
I1420756645
sg2
(g3
g4
(S'82.137.12.103'
p1469
I8444
tp1470
tp1471
Rp1472
I1420835563
sg2
(g3
g4
(S'77.95.229.18'
p1473
I8444
tp1474
tp1475
Rp1476
I1420840362
sg2
(g3
g4
(S'104.232.3.33'
p1477
I8444
tp1478
tp1479
Rp1480
I1420832379
sg2
(g3
g4
(S'46.165.228.119'
p1481
I8444
tp1482
tp1483
Rp1484
I1421627307
sg2
(g3
g4
(S'178.126.187.192'
p1485
I8444
tp1486
tp1487
Rp1488
I1420732777
sg2
(g3
g4
(S'93.212.28.104'
p1489
I8444
tp1490
tp1491
Rp1492
I1420824026
sg2
(g3
g4
(S'62.212.89.116'
p1493
I8444
tp1494
tp1495
Rp1496
I1420835098
sg2
(g3
g4
(S'94.180.111.83'
p1497
I8444
tp1498
tp1499
Rp1500
I1421625750
sg2
(g3
g4
(S'88.130.140.66'
p1501
I8444
tp1502
tp1503
Rp1504
I1420766695
sg2
(g3
g4
(S'176.10.99.209'
p1505
I8444
tp1506
tp1507
Rp1508
I1420835302
sg2
(g3
g4
(S'104.245.146.242'
p1509
I8444
tp1510
tp1511
Rp1512
I1420766426
sg2
(g3
g4
(S'104.245.146.62'
p1513
I8444
tp1514
tp1515
Rp1516
I1420840732
sg2
(g3
g4
(S'81.137.220.144'
p1517
I8444
tp1518
tp1519
Rp1520
I1420840396
sg2
(g3
g4
(S'162.253.129.178'
p1521
I8444
tp1522
tp1523
Rp1524
I1420839774
sg2
(g3
g4
(S'88.156.21.255'
p1525
I8444
tp1526
tp1527
Rp1528
I1420730253
sg2
(g3
g4
(S'141.76.180.107'
p1529
I8444
tp1530
tp1531
Rp1532
I1420730740
sg2
(g3
g4
(S'192.99.150.152'
p1533
I65502
tp1534
tp1535
Rp1536
I1420825400
sg2
(g3
g4
(S'91.240.112.10'
p1537
I55110
tp1538
tp1539
Rp1540
I1420821225
sg2
(g3
g4
(S'54.77.46.118'
p1541
I8444
tp1542
tp1543
Rp1544
I1420825534
sg2
(g3
g4
(S'162.219.178.98'
p1545
I8444
tp1546
tp1547
Rp1548
I1420766492
sg2
(g3
g4
(S'178.143.108.186'
p1549
I8444
tp1550
tp1551
Rp1552
I1420736553
sg2
(g3
g4
(S'90.7.68.54'
p1553
I8444
tp1554
tp1555
Rp1556
I1421628357
sg2
(g3
g4
(S'185.29.8.167'
p1557
I8444
tp1558
tp1559
Rp1560
I1421624054
sg2
(g3
g4
(S'194.150.168.79'
p1561
I8444
tp1562
tp1563
Rp1564
I1420836567
sg2
(g3
g4
(S'46.147.84.178'
p1565
I8444
tp1566
tp1567
Rp1568
I1420730110
sg2
(g3
g4
(S'94.42.0.182'
p1569
I8444
tp1570
tp1571
Rp1572
I1420839573
sg2
(g3
g4
(S'24.44.40.100'
p1573
I8444
tp1574
tp1575
Rp1576
I1420816750
sg2
(g3
g4
(S'104.245.145.138'
p1577
I8444
tp1578
tp1579
Rp1580
I1420842428
sg2
(g3
g4
(S'76.95.160.223'
p1581
I8444
tp1582
tp1583
Rp1584
I1420763421
sg2
(g3
g4
(S'195.154.251.25'
p1585
I8445
tp1586
tp1587
Rp1588
I1420729577
sg2
(g3
g4
(S'77.247.181.162'
p1589
I8080
tp1590
tp1591
Rp1592
I1420758081
sg2
(g3
g4
(S'2001:0:9d38:6ab8:450:2943:a0c1:3f51'
p1593
I8444
tp1594
tp1595
Rp1596
I1420829125
sg2
(g3
g4
(S'151.46.28.201'
p1597
I8444
tp1598
tp1599
Rp1600
I1420761387
sg2
(g3
g4
(S'162.219.179.101'
p1601
I8444
tp1602
tp1603
Rp1604
I1420837773
sg2
(g3
g4
(S'95.88.214.80'
p1605
I8444
tp1606
tp1607
Rp1608
I1420842561
sg2
(g3
g4
(S'94.204.5.198'
p1609
I8444
tp1610
tp1611
Rp1612
I1420835224
sg2
(g3
g4
(S'162.219.179.210'
p1613
I8444
tp1614
tp1615
Rp1616
I1420842431
sg2
(g3
g4
(S'176.10.99.202'
p1617
I8444
tp1618
tp1619
Rp1620
I1420840093
sg2
(g3
g4
(S'84.131.201.205'
p1621
I8444
tp1622
tp1623
Rp1624
I1420737007
sg2
(g3
g4
(S'70.193.50.2'
p1625
I8444
tp1626
tp1627
Rp1628
I1420814342
sg2
(g3
g4
(S'111.161.9.29'
p1629
I8444
tp1630
tp1631
Rp1632
I1420757533
sg2
(g3
g4
(S'37.24.233.42'
p1633
I8444
tp1634
tp1635
Rp1636
I1420823932
sg2
(g3
g4
(S'81.147.136.192'
p1637
I8444
tp1638
tp1639
Rp1640
I1420761878
sg2
(g3
g4
(S'178.62.154.61'
p1641
I8444
tp1642
tp1643
Rp1644
I1420836572
sg2
(g3
g4
(S'89.150.160.41'
p1645
I8444
tp1646
tp1647
Rp1648
I1420736448
sg2
(g3
g4
(S'94.242.239.168'
p1649
I8444
tp1650
tp1651
Rp1652
I1420823140
sg2
(g3
g4
(S'2001:0:5ef5:79fd:80f:b6a:433f:40b6'
p1653
I8444
tp1654
tp1655
Rp1656
I1420728476
sg2
(g3
g4
(S'83.149.126.29'
p1657
I8444
tp1658
tp1659
Rp1660
I1420823005
sg2
(g3
g4
(S'93.181.58.107'
p1661
I8444
tp1662
tp1663
Rp1664
I1420727770
sg2
(g3
g4
(S'91.189.21.173'
p1665
I8444
tp1666
tp1667
Rp1668
I1420831800
sg2
(g3
g4
(S'95.211.205.151'
p1669
I9150
tp1670
tp1671
Rp1672
I1420824976
sg2
(g3
g4
(S'71.59.86.182'
p1673
I8444
tp1674
tp1675
Rp1676
I1421624318
sg2
(g3
g4
(S'188.40.23.86'
p1677
I8444
tp1678
tp1679
Rp1680
I1421624996
sg2
(g3
g4
(S'128.54.10.18'
p1681
I8444
tp1682
tp1683
Rp1684
I1420763301
sg2
(g3
g4
(S'81.111.79.149'
p1685
I8444
tp1686
tp1687
Rp1688
I1420761096
sg2
(g3
g4
(S'176.213.5.187'
p1689
I8444
tp1690
tp1691
Rp1692
I1420837136
sg2
(g3
g4
(S'5.135.158.101'
p1693
I9002
tp1694
tp1695
Rp1696
I1420756580
sg2
(g3
g4
(S'64.113.44.206'
p1697
I9002
tp1698
tp1699
Rp1700
I1420820703
sg2
(g3
g4
(S'97.80.212.56'
p1701
I8444
tp1702
tp1703
Rp1704
I1421630160
sg2
(g3
g4
(S'54.174.226.99'
p1705
I8444
tp1706
tp1707
Rp1708
I1420818158
sg2
(g3
g4
(S'61.135.213.208'
p1709
I8444
tp1710
tp1711
Rp1712
I1420757606
sg2
(g3
g4
(S'208.74.110.10'
p1713
I8444
tp1714
tp1715
Rp1716
I1421621192
sg2
(g3
g4
(S'89.177.147.99'
p1717
I8444
tp1718
tp1719
Rp1720
I1420837393
sg2
(g3
g4
(S'77.247.181.163'
p1721
I8444
tp1722
tp1723
Rp1724
I1421627161
sg2
(g3
g4
(S'204.187.101.236'
p1725
I8446
tp1726
tp1727
Rp1728
I1420831497
sg2
(g3
g4
(S'207.119.214.226'
p1729
I8444
tp1730
tp1731
Rp1732
I1420844621
sg2
(g3
g4
(S'64.113.32.29'
p1733
I8444
tp1734
tp1735
Rp1736
I1420829876
sg2
(g3
g4
(S'162.219.179.18'
p1737
I8444
tp1738
tp1739
Rp1740
I1420735227
sg2
(g3
g4
(S'178.93.16.137'
p1741
I8444
tp1742
tp1743
Rp1744
I1420735490
sg2
(g3
g4
(S'2001:0:5ef5:79fb:1487:1c34:9775:1e36'
p1745
I8444
tp1746
tp1747
Rp1748
I1420814801
sg2
(g3
g4
(S'24.12.11.51'
p1749
I8444
tp1750
tp1751
Rp1752
I1421629403
sg2
(g3
g4
(S'96.44.189.102'
p1753
I9002
tp1754
tp1755
Rp1756
I1421629134
sg2
(g3
g4
(S'162.219.179.84'
p1757
I8444
tp1758
tp1759
Rp1760
I1420839869
sg2
(g3
g4
(S'193.81.39.14'
p1761
I8444
tp1762
tp1763
Rp1764
I1420843300
sg2
(g3
g4
(S'178.148.218.230'
p1765
I8444
tp1766
tp1767
Rp1768
I1420838404
sg2
(g3
g4
(S'194.166.211.245'
p1769
I8444
tp1770
tp1771
Rp1772
I1420836610
sg2
(g3
g4
(S'46.246.34.219'
p1773
I8444
tp1774
tp1775
Rp1776
I1420762339
sg2
(g3
g4
(S'64.113.44.206'
p1777
I8444
tp1778
tp1779
Rp1780
I1420833443
sg2
(g3
g4
(S'84.143.234.146'
p1781
I8444
tp1782
tp1783
Rp1784
I1420833452
sg2
(g3
g4
(S'91.142.109.8'
p1785
I3244
tp1786
tp1787
Rp1788
I1420841480
sg2
(g3
g4
(S'128.90.92.50'
p1789
I8444
tp1790
tp1791
Rp1792
I1420728402
sg2
(g3
g4
(S'72.52.75.27'
p1793
I6881
tp1794
tp1795
Rp1796
I1420840310
sg2
(g3
g4
(S'99.9.209.255'
p1797
I8444
tp1798
tp1799
Rp1800
I1420843421
sg2
(g3
g4
(S'190.46.209.203'
p1801
I8444
tp1802
tp1803
Rp1804
I1420828474
sg2
(g3
g4
(S'78.155.217.76'
p1805
I8444
tp1806
tp1807
Rp1808
I1420823552
sg2
(g3
g4
(S'38.106.246.50'
p1809
I8444
tp1810
tp1811
Rp1812
I1420840526
sg2
(g3
g4
(S'31.181.63.238'
p1813
I8444
tp1814
tp1815
Rp1816
I1420815375
sg2
(g3
g4
(S'95.153.20.206'
p1817
I8444
tp1818
tp1819
Rp1820
I1421626039
sg2
(g3
g4
(S'91.240.112.10'
p1821
I50861
tp1822
tp1823
Rp1824
I1420734888
sg2
(g3
g4
(S'104.245.146.134'
p1825
I8446
tp1826
tp1827
Rp1828
I1420831483
sg2
(g3
g4
(S'91.109.20.219'
p1829
I8444
tp1830
tp1831
Rp1832
I1420818371
sg2
(g3
g4
(S'50.172.157.41'
p1833
I8444
tp1834
tp1835
Rp1836
I1420839099
sg2
(g3
g4
(S'78.53.102.233'
p1837
I8444
tp1838
tp1839
Rp1840
I1420840559
sg2
(g3
g4
(S'80.100.94.89'
p1841
I9123
tp1842
tp1843
Rp1844
I1421629642
sg2
(g3
g4
(S'184.75.214.178'
p1845
I8444
tp1846
tp1847
Rp1848
I1420724936
sg2
(g3
g4
(S'85.127.87.36'
p1849
I8444
tp1850
tp1851
Rp1852
I1420816719
sg2
(g3
g4
(S'213.168.116.85'
p1853
I8444
tp1854
tp1855
Rp1856
I1420833468
sg2
(g3
g4
(S'27.99.11.75'
p1857
I8444
tp1858
tp1859
Rp1860
I1420758906
sg2
(g3
g4
(S'91.65.218.67'
p1861
I8444
tp1862
tp1863
Rp1864
I1420841398
sg2
(g3
g4
(S'92.73.89.163'
p1865
I8444
tp1866
tp1867
Rp1868
I1420725491
sg2
(g3
g4
(S'104.245.146.22'
p1869
I8444
tp1870
tp1871
Rp1872
I1421622843
sg2
(g3
g4
(S'79.109.4.128'
p1873
I8444
tp1874
tp1875
Rp1876
I1420834779
sg2
(g3
g4
(S'222.85.118.151'
p1877
I8336
tp1878
tp1879
Rp1880
I1421625752
sg2
(g3
g4
(S'87.126.68.178'
p1881
I8444
tp1882
tp1883
Rp1884
I1420824279
sg2
(g3
g4
(S'37.48.74.83'
p1885
I43877
tp1886
tp1887
Rp1888
I1420816934
sg2
(g3
g4
(S'80.192.69.70'
p1889
I8444
tp1890
tp1891
Rp1892
I1420756373
sg2
(g3
g4
(S'109.201.152.229'
p1893
I8444
tp1894
tp1895
Rp1896
I1421624544
sg2
(g3
g4
(S'77.6.163.107'
p1897
I8444
tp1898
tp1899
Rp1900
I1420833555
sg2
(g3
g4
(S'108.47.78.203'
p1901
I8444
tp1902
tp1903
Rp1904
I1421629312
sg2
(g3
g4
(S'37.48.80.173'
p1905
I8444
tp1906
tp1907
Rp1908
I1421624202
sg2
(g3
g4
(S'122.60.71.18'
p1909
I8444
tp1910
tp1911
Rp1912
I1420841648
sg2
(g3
g4
(S'60.10.97.176'
p1913
I8444
tp1914
tp1915
Rp1916
I1420839816
sg2
(g3
g4
(S'185.61.149.148'
p1917
I8444
tp1918
tp1919
Rp1920
I1421624363
sg2
(g3
g4
(S'91.240.112.10'
p1921
I56152
tp1922
tp1923
Rp1924
I1420824576
sg2
(g3
g4
(S'93.174.93.63'
p1925
I9150
tp1926
tp1927
Rp1928
I1420725884
sg2
(g3
g4
(S'79.227.189.93'
p1929
I8444
tp1930
tp1931
Rp1932
I1420734715
sg2
(g3
g4
(S'137.63.74.202'
p1933
I8444
tp1934
tp1935
Rp1936
I1420822631
sg2
(g3
g4
(S'213.172.96.242'
p1937
I8444
tp1938
tp1939
Rp1940
I1420839520
sg2
(g3
g4
(S'54.72.136.14'
p1941
I8444
tp1942
tp1943
Rp1944
I1420819604
sg2
(g3
g4
(S'184.75.211.162'
p1945
I8446
tp1946
tp1947
Rp1948
I1420736421
sg2
(g3
g4
(S'104.207.136.85'
p1949
I8444
tp1950
tp1951
Rp1952
I1420840724
sg2
(g3
g4
(S'81.5.87.199'
p1953
I8444
tp1954
tp1955
Rp1956
I1420840352
sg2
(g3
g4
(S'71.42.73.110'
p1957
I1337
tp1958
tp1959
Rp1960
I1420842563
sg2
(g3
g4
(S'98.245.11.138'
p1961
I8444
tp1962
tp1963
Rp1964
I1420837116
sg2
(g3
g4
(S'2001:0:5ef5:79fd:18c7:1779:b016:c342'
p1965
I8444
tp1966
tp1967
Rp1968
I1420832360
sg2
(g3
g4
(S'104.220.68.116'
p1969
I8444
tp1970
tp1971
Rp1972
I1420762934
sg2
(g3
g4
(S'72.52.75.27'
p1973
I8444
tp1974
tp1975
Rp1976
I1420842201
sg2
(g3
g4
(S'178.125.120.249'
p1977
I8444
tp1978
tp1979
Rp1980
I1420727782
sg2
(g3
g4
(S'170.140.104.1'
p1981
I8444
tp1982
tp1983
Rp1984
I1420839959
sg2
(g3
g4
(S'176.179.252.225'
p1985
I8444
tp1986
tp1987
Rp1988
I1420837631
sg2
(g3
g4
(S'183.171.185.123'
p1989
I8444
tp1990
tp1991
Rp1992
I1420833351
sg2
(g3
g4
(S'162.253.129.98'
p1993
I8444
tp1994
tp1995
Rp1996
I1420763822
sg2
(g3
g4
(S'82.43.66.119'
p1997
I8444
tp1998
tp1999
Rp2000
I1420765425
sg2
(g3
g4
(S'77.247.181.165'
p2001
I8444
tp2002
tp2003
Rp2004
I1420842270
sg2
(g3
g4
(S'92.225.33.116'
p2005
I8444
tp2006
tp2007
Rp2008
I1420730699
sg2
(g3
g4
(S'176.126.252.11'
p2009
I9002
tp2010
tp2011
Rp2012
I1420841788
sg2
(g3
g4
(S'68.60.6.185'
p2013
I8444
tp2014
tp2015
Rp2016
I1420839115
sg2
(g3
g4
(S'95.106.250.58'
p2017
I8444
tp2018
tp2019
Rp2020
I1420826414
sg2
(g3
g4
(S'184.75.212.154'
p2021
I8444
tp2022
tp2023
Rp2024
I1420761613
sg2
(g3
g4
(S'92.203.78.129'
p2025
I8080
tp2026
tp2027
Rp2028
I1420837972
sg2
(g3
g4
(S'178.217.187.39'
p2029
I8080
tp2030
tp2031
Rp2032
I1420815230
sg2
(g3
g4
(S'216.30.181.47'
p2033
I8444
tp2034
tp2035
Rp2036
I1420842034
sg2
(g3
g4
(S'78.62.79.83'
p2037
I8444
tp2038
tp2039
Rp2040
I1420837600
sg2
(g3
g4
(S'87.180.6.252'
p2041
I8444
tp2042
tp2043
Rp2044
I1420844069
sg2
(g3
g4
(S'128.141.97.117'
p2045
I8444
tp2046
tp2047
Rp2048
I1420728118
sg2
(g3
g4
(S'2a02:908:e211:8881:955f:4cc5:1695:5fe6'
p2049
I8444
tp2050
tp2051
Rp2052
I1420820846
sg2
(g3
g4
(S'2601:2:5d80:966:407a:f0a8:9c5a:7a59'
p2053
I8444
tp2054
tp2055
Rp2056
I1420756215
sg2
(g3
g4
(S'159.0.102.235'
p2057
I8444
tp2058
tp2059
Rp2060
I1420841560
sg2
(g3
g4
(S'192.99.150.152'
p2061
I61726
tp2062
tp2063
Rp2064
I1420823476
sg2
(g3
g4
(S'83.25.49.158'
p2065
I8444
tp2066
tp2067
Rp2068
I1420837939
sg2
(g3
g4
(S'2001:0:9d38:90d7:2c8e:3f58:9775:1e36'
p2069
I8444
tp2070
tp2071
Rp2072
I1420833824
sg2
(g3
g4
(S'79.245.163.86'
p2073
I8444
tp2074
tp2075
Rp2076
I1420843612
sg2
(g3
g4
(S'173.2.106.204'
p2077
I8444
tp2078
tp2079
Rp2080
I1420725518
sg2
(g3
g4
(S'62.210.74.186'
p2081
I8444
tp2082
tp2083
Rp2084
I1421625310
sg2
(g3
g4
(S'85.24.215.117'
p2085
I8444
tp2086
tp2087
Rp2088
I1420840067
sg2
(g3
g4
(S'162.219.179.96'
p2089
I8444
tp2090
tp2091
Rp2092
I1420725816
sg2
(g3
g4
(S'37.123.133.225'
p2093
I8444
tp2094
tp2095
Rp2096
I1421622652
sg2
(g3
g4
(S'37.221.169.147'
p2097
I8444
tp2098
tp2099
Rp2100
I1420732065
sg2
(g3
g4
(S'94.242.246.23'
p2101
I9002
tp2102
tp2103
Rp2104
I1420831083
sg2
(g3
g4
(S'93.189.2.18'
p2105
I58532
tp2106
tp2107
Rp2108
I1421624568
sg2
(g3
g4
(S'209.160.36.40'
p2109
I8444
tp2110
tp2111
Rp2112
I1420756430
sg2
(g3
g4
(S'112.186.95.47'
p2113
I8444
tp2114
tp2115
Rp2116
I1420822862
sg2
(g3
g4
(S'94.97.189.244'
p2117
I8444
tp2118
tp2119
Rp2120
I1420839222
sg2
(g3
g4
(S'82.211.223.3'
p2121
I9150
tp2122
tp2123
Rp2124
I1420841077
sg2
(g3
g4
(S'98.220.223.215'
p2125
I8444
tp2126
tp2127
Rp2128
I1420728440
sg2
(g3
g4
(S'93.174.90.30'
p2129
I8080
tp2130
tp2131
Rp2132
I1420734633
sg2
(g3
g4
(S'137.63.74.242'
p2133
I8444
tp2134
tp2135
Rp2136
I1420764665
sg2
(g3
g4
(S'109.190.187.240'
p2137
I8444
tp2138
tp2139
Rp2140
I1420827902
sg2
(g3
g4
(S'88.19.230.234'
p2141
I8444
tp2142
tp2143
Rp2144
I1420733859
sg2
(g3
g4
(S'94.242.252.41'
p2145
I8444
tp2146
tp2147
Rp2148
I1421626433
sg2
(g3
g4
(S'95.31.110.167'
p2149
I8444
tp2150
tp2151
Rp2152
I1420737097
sg2
(g3
g4
(S'109.182.92.27'
p2153
I8444
tp2154
tp2155
Rp2156
I1420839733
sg2
(g3
g4
(S'137.63.71.82'
p2157
I8444
tp2158
tp2159
Rp2160
I1421620809
sg2
(g3
g4
(S'46.237.212.11'
p2161
I8080
tp2162
tp2163
Rp2164
I1420818747
sg2
(g3
g4
(S'46.246.32.23'
p2165
I8444
tp2166
tp2167
Rp2168
I1420843050
sg2
(g3
g4
(S'5.196.0.123'
p2169
I8444
tp2170
tp2171
Rp2172
I1420763790
sg2
(g3
g4
(S'202.216.24.196'
p2173
I8444
tp2174
tp2175
Rp2176
I1421629757
sg2
(g3
g4
(S'2003:6c:6f50:2ae7:5492:1669:efe4:6016'
p2177
I8444
tp2178
tp2179
Rp2180
I1420729126
sg2
(g3
g4
(S'75.167.159.54'
p2181
I8444
tp2182
tp2183
Rp2184
I1420841522
sg2
(g3
g4
(S'162.253.130.74'
p2185
I8444
tp2186
tp2187
Rp2188
I1420842456
sg2
(g3
g4
(S'46.187.39.180'
p2189
I8444
tp2190
tp2191
Rp2192
I1420826141
sg2
(g3
g4
(S'178.217.187.39'
p2193
I65535
tp2194
tp2195
Rp2196
I1420828528
sg2
(g3
g4
(S'88.217.180.162'
p2197
I8444
tp2198
tp2199
Rp2200
I1420827916
sg2
(g3
g4
(S'79.237.81.79'
p2201
I8444
tp2202
tp2203
Rp2204
I1420758672
sg2
(g3
g4
(S'82.36.184.125'
p2205
I8444
tp2206
tp2207
Rp2208
I1420843459
sg2
(g3
g4
(S'91.240.112.10'
p2209
I51178
tp2210
tp2211
Rp2212
I1420736387
sg2
(g3
g4
(S'176.126.252.11'
p2213
I8080
tp2214
tp2215
Rp2216
I1420821400
sg2
(g3
g4
(S'95.165.168.168'
p2217
I8444
tp2218
tp2219
Rp2220
I1421631054
sg2
(g3
g4
(S'37.201.241.191'
p2221
I8444
tp2222
tp2223
Rp2224
I1420823158
sg2
(g3
g4
(S'77.247.224.33'
p2225
I80
tp2226
tp2227
Rp2228
I1421628503
sg2
(g3
g4
(S'91.240.112.10'
p2229
I56653
tp2230
tp2231
Rp2232
I1420825768
sg2
(g3
g4
(S'92.85.27.107'
p2233
I8444
tp2234
tp2235
Rp2236
I1420733687
sg2
(g3
g4
(S'2a00:1028:96d6:526:b002:5e64:c174:e2f5'
p2237
I8444
tp2238
tp2239
Rp2240
I1420837464
sg2
(g3
g4
(S'2601:6:4c80:7b0:390f:c319:c891:db1f'
p2241
I8444
tp2242
tp2243
Rp2244
I1420729525
sg2
(g3
g4
(S'184.75.214.202'
p2245
I8444
tp2246
tp2247
Rp2248
I1420840154
sg2
(g3
g4
(S'184.75.213.74'
p2249
I8444
tp2250
tp2251
Rp2252
I1420835733
sg2
(g3
g4
(S'184.75.211.177'
p2253
I8444
tp2254
tp2255
Rp2256
I1420833538
sg2
(g3
g4
(S'93.104.71.232'
p2257
I8444
tp2258
tp2259
Rp2260
I1420839730
sg2
(g3
g4
(S'112.195.181.232'
p2261
I8444
tp2262
tp2263
Rp2264
I1420831576
sg2
(g3
g4
(S'104.245.146.42'
p2265
I8444
tp2266
tp2267
Rp2268
I1420735758
sg2
(g3
g4
(S'193.163.220.143'
p2269
I6881
tp2270
tp2271
Rp2272
I1420840283
sg2
(g3
g4
(S'87.239.112.198'
p2273
I8444
tp2274
tp2275
Rp2276
I1420833613
sg2
(g3
g4
(S'83.27.119.107'
p2277
I8444
tp2278
tp2279
Rp2280
I1420730789
sg2
(g3
g4
(S'213.162.68.118'
p2281
I8444
tp2282
tp2283
Rp2284
I1420835368
sg2
(g3
g4
(S'2001:470:e108:1:a8bc:807d:3a6c:8f4'
p2285
I8444
tp2286
tp2287
Rp2288
I1420821910
sg2
(g3
g4
(S'178.7.107.57'
p2289
I8444
tp2290
tp2291
Rp2292
I1420835309
sg2
(g3
g4
(S'119.81.135.17'
p2293
I8444
tp2294
tp2295
Rp2296
I1420733604
sg2
(g3
g4
(S'145.97.208.104'
p2297
I8444
tp2298
tp2299
Rp2300
I1420836711
sg2
(g3
g4
(S'90.43.170.30'
p2301
I8444
tp2302
tp2303
Rp2304
I1420836953
sg2
(g3
g4
(S'208.184.126.210'
p2305
I8444
tp2306
tp2307
Rp2308
I1420737631
sg2
(g3
g4
(S'89.24.177.167'
p2309
I8444
tp2310
tp2311
Rp2312
I1420829337
sg2
(g3
g4
(S'69.180.174.225'
p2313
I8444
tp2314
tp2315
Rp2316
I1421628096
sg2
(g3
g4
(S'173.174.54.232'
p2317
I8444
tp2318
tp2319
Rp2320
I1420836098
sg2
(g3
g4
(S'149.255.33.155'
p2321
I8444
tp2322
tp2323
Rp2324
I1421625060
sg2
(g3
g4
(S'46.53.193.156'
p2325
I8444
tp2326
tp2327
Rp2328
I1420728511
sg2
(g3
g4
(S'178.93.62.55'
p2329
I8444
tp2330
tp2331
Rp2332
I1421619662
sg2
(g3
g4
(S'78.30.101.59'
p2333
I8444
tp2334
tp2335
Rp2336
I1421623988
sg2
(g3
g4
(S'194.125.32.254'
p2337
I8444
tp2338
tp2339
Rp2340
I1420727734
sg2
(g3
g4
(S'88.135.91.213'
p2341
I8444
tp2342
tp2343
Rp2344
I1420837095
sg2
(g3
g4
(S'79.70.76.118'
p2345
I8444
tp2346
tp2347
Rp2348
I1420829779
sg2
(g3
g4
(S'193.138.219.233'
p2349
I8445
tp2350
tp2351
Rp2352
I1421624952
sg2
(g3
g4
(S'118.169.41.196'
p2353
I8444
tp2354
tp2355
Rp2356
I1421630160
sg2
(g3
g4
(S'104.245.146.54'
p2357
I8444
tp2358
tp2359
Rp2360
I1420843175
sg2
(g3
g4
(S'81.220.230.153'
p2361
I8444
tp2362
tp2363
Rp2364
I1421623009
sg2
(g3
g4
(S'37.235.60.60'
p2365
I8444
tp2366
tp2367
Rp2368
I1420726544
sg2
(g3
g4
(S'84.19.190.133'
p2369
I9002
tp2370
tp2371
Rp2372
I1420831064
sg2
(g3
g4
(S'50.183.0.216'
p2373
I8444
tp2374
tp2375
Rp2376
I1420839544
sg2
(g3
g4
(S'93.189.2.18'
p2377
I58975
tp2378
tp2379
Rp2380
I1421624684
sg2
(g3
g4
(S'83.26.148.179'
p2381
I8444
tp2382
tp2383
Rp2384
I1420830984
sg2
(g3
g4
(S'87.205.222.44'
p2385
I8444
tp2386
tp2387
Rp2388
I1420825058
sg2
(g3
g4
(S'188.138.39.23'
p2389
I8444
tp2390
tp2391
Rp2392
I1420842880
sg2
(g3
g4
(S'2001:0:5ef5:79fd:3441:3030:aebc:3b13'
p2393
I8444
tp2394
tp2395
Rp2396
I1420829706
sg2
(g3
g4
(S'212.73.197.225'
p2397
I8444
tp2398
tp2399
Rp2400
I1420841618
sg2
(g3
g4
(S'84.39.160.10'
p2401
I8444
tp2402
tp2403
Rp2404
I1420760875
sg2
(g3
g4
(S'178.20.48.86'
p2405
I8444
tp2406
tp2407
Rp2408
I1420734640
sg2
(g3
g4
(S'141.30.123.16'
p2409
I8444
tp2410
tp2411
Rp2412
I1420822660
sg2
(g3
g4
(S'95.73.209.190'
p2413
I8444
tp2414
tp2415
Rp2416
I1420729263
sg2
(g3
g4
(S'31.7.58.158'
p2417
I8444
tp2418
tp2419
Rp2420
I1420833927
sg2
(g3
g4
(S'91.240.112.10'
p2421
I51192
tp2422
tp2423
Rp2424
I1420736401
sg2
(g3
g4
(S'2a02:8108:1f80:1a24:49a5:9aaa:70ec:cd78'
p2425
I8444
tp2426
tp2427
Rp2428
I1420821982
sg2
(g3
g4
(S'94.126.178.1'
p2429
I8444
tp2430
tp2431
Rp2432
I1421629832
sg2
(g3
g4
(S'2a02:908:eb72:2c80:b8a9:c00:d3cd:c042'
p2433
I8444
tp2434
tp2435
Rp2436
I1420844641
sg2
(g3
g4
(S'91.240.112.10'
p2437
I56231
tp2438
tp2439
Rp2440
I1420824618
sg2
(g3
g4
(S'73.52.139.148'
p2441
I8444
tp2442
tp2443
Rp2444
I1420844071
sg2
(g3
g4
(S'68.69.247.84'
p2445
I8444
tp2446
tp2447
Rp2448
I1421624560
sg2
(g3
g4
(S'37.221.176.30'
p2449
I8444
tp2450
tp2451
Rp2452
I1420829569
sg2
(g3
g4
(S'212.184.30.210'
p2453
I8444
tp2454
tp2455
Rp2456
I1420836085
sg2
(g3
g4
(S'217.95.101.153'
p2457
I8444
tp2458
tp2459
Rp2460
I1420737336
sg2
(g3
g4
(S'91.240.112.10'
p2461
I51534
tp2462
tp2463
Rp2464
I1420737211
sg2
(g3
g4
(S'219.142.159.216'
p2465
I8444
tp2466
tp2467
Rp2468
I1420842321
sg2
(g3
g4
(S'104.245.145.66'
p2469
I8444
tp2470
tp2471
Rp2472
I1420842428
sg2
(g3
g4
(S'46.234.69.223'
p2473
I8444
tp2474
tp2475
Rp2476
I1420829740
sg2
(g3
g4
(S'72.66.12.36'
p2477
I8444
tp2478
tp2479
Rp2480
I1420835170
sg2
(g3
g4
(S'81.217.203.65'
p2481
I8444
tp2482
tp2483
Rp2484
I1420843342
sg2
(g3
g4
(S'46.165.208.203'
p2485
I14748
tp2486
tp2487
Rp2488
I1421619659
sg2
(g3
g4
(S'91.179.217.165'
p2489
I8444
tp2490
tp2491
Rp2492
I1420834216
sg2
(g3
g4
(S'88.128.80.52'
p2493
I8444
tp2494
tp2495
Rp2496
I1420829915
sg2
(g3
g4
(S'73.165.173.90'
p2497
I8444
tp2498
tp2499
Rp2500
I1420840391
sg2
(g3
g4
(S'83.44.227.38'
p2501
I8444
tp2502
tp2503
Rp2504
I1420839257
sg2
(g3
g4
(S'77.109.138.42'
p2505
I8444
tp2506
tp2507
Rp2508
I1420838696
sg2
(g3
g4
(S'121.222.1.74'
p2509
I8444
tp2510
tp2511
Rp2512
I1421628364
sg2
(g3
g4
(S'162.219.179.71'
p2513
I8444
tp2514
tp2515
Rp2516
I1420757776
sg2
(g3
g4
(S'107.4.70.133'
p2517
I8444
tp2518
tp2519
Rp2520
I1421620643
sg2
(g3
g4
(S'108.250.254.155'
p2521
I8444
tp2522
tp2523
Rp2524
I1420815198
sg2
(g3
g4
(S'75.111.215.188'
p2525
I8444
tp2526
tp2527
Rp2528
I1420840164
sg2
(g3
g4
(S'184.75.223.58'
p2529
I8444
tp2530
tp2531
Rp2532
I1420727000
sg2
(g3
g4
(S'71.90.44.232'
p2533
I8444
tp2534
tp2535
Rp2536
I1420835091
sg2
(g3
g4
(S'106.185.34.43'
p2537
I8444
tp2538
tp2539
Rp2540
I1420839916
sg2
(g3
g4
(S'184.75.211.171'
p2541
I8444
tp2542
tp2543
Rp2544
I1421630349
sg2
(g3
g4
(S'2a03:b0c0:1:d0::10c:f001'
p2545
I8444
tp2546
tp2547
Rp2548
I1420822929
sg2
(g3
g4
(S'93.189.2.18'
p2549
I61066
tp2550
tp2551
Rp2552
I1421625245
sg2
(g3
g4
(S'162.199.125.33'
p2553
I8444
tp2554
tp2555
Rp2556
I1421626034
sg2
(g3
g4
(S'118.82.216.65'
p2557
I8444
tp2558
tp2559
Rp2560
I1420841795
sg2
(g3
g4
(S'183.171.185.89'
p2561
I8444
tp2562
tp2563
Rp2564
I1420833348
sg2
(g3
g4
(S'208.117.101.114'
p2565
I8444
tp2566
tp2567
Rp2568
I1421628347
sg2
(g3
g4
(S'94.242.228.140'
p2569
I8444
tp2570
tp2571
Rp2572
I1420837643
sg2
(g3
g4
(S'216.161.91.65'
p2573
I8444
tp2574
tp2575
Rp2576
I1420758634
sg2
(g3
g4
(S'77.179.163.208'
p2577
I8444
tp2578
tp2579
Rp2580
I1420737866
sg2
(g3
g4
(S'162.219.176.178'
p2581
I8444
tp2582
tp2583
Rp2584
I1420729792
sg2
(g3
g4
(S'88.162.121.1'
p2585
I8444
tp2586
tp2587
Rp2588
I1421623204
sg2
(g3
g4
(S'184.75.211.138'
p2589
I8444
tp2590
tp2591
Rp2592
I1420825903
sg2
(g3
g4
(S'46.41.122.19'
p2593
I8444
tp2594
tp2595
Rp2596
I1421627906
sg2
(g3
g4
(S'5.223.106.199'
p2597
I8444
tp2598
tp2599
Rp2600
I1420826910
sg2
(g3
g4
(S'178.217.187.39'
p2601
I8444
tp2602
tp2603
Rp2604
I1420841561
sg2
(g3
g4
(S'201.229.59.80'
p2605
I8444
tp2606
tp2607
Rp2608
I1420761166
sg2
(g3
g4
(S'87.180.31.235'
p2609
I8444
tp2610
tp2611
Rp2612
I1420756805
sg2
(g3
g4
(S'192.81.249.31'
p2613
I8444
tp2614
tp2615
Rp2616
I1420838389
sg2
(g3
g4
(S'122.208.230.165'
p2617
I8444
tp2618
tp2619
Rp2620
I1420763031
sg2
(g3
g4
(S'126.108.74.63'
p2621
I8444
tp2622
tp2623
Rp2624
I1420815354
sg2
(g3
g4
(S'184.75.211.213'
p2625
I8444
tp2626
tp2627
Rp2628
I1420724911
sg2
(g3
g4
(S'95.90.230.225'
p2629
I8444
tp2630
tp2631
Rp2632
I1420733995
sg2
(g3
g4
(S'2a02:e00:ffff:f3:b8cd:149d:9183:ebf5'
p2633
I8444
tp2634
tp2635
Rp2636
I1420831052
sg2
(g3
g4
(S'2001:0:9d38:6ab8:c1b:3d6b:a0b7:c6ef'
p2637
I8444
tp2638
tp2639
Rp2640
I1420727061
sg2
(g3
g4
(S'2a01:4f8:192:db::2'
p2641
I8444
tp2642
tp2643
Rp2644
I1420831492
sg2
(g3
g4
(S'162.220.246.190'
p2645
I8444
tp2646
tp2647
Rp2648
I1420843625
sg2
(g3
g4
(S'184.75.214.146'
p2649
I8444
tp2650
tp2651
Rp2652
I1420819253
sg2
(g3
g4
(S'89.105.197.130'
p2653
I8444
tp2654
tp2655
Rp2656
I1420842245
sg2
(g3
g4
(S'79.247.172.121'
p2657
I8445
tp2658
tp2659
Rp2660
I1420841600
sg2
(g3
g4
(S'78.43.42.10'
p2661
I8444
tp2662
tp2663
Rp2664
I1420734536
sg2
(g3
g4
(S'46.165.246.200'
p2665
I8444
tp2666
tp2667
Rp2668
I1420817738
sg2
(g3
g4
(S'114.17.230.109'
p2669
I8444
tp2670
tp2671
Rp2672
I1420843602
sg2
(g3
g4
(S'174.21.106.13'
p2673
I8444
tp2674
tp2675
Rp2676
I1420840268
sg2
(g3
g4
(S'109.192.194.9'
p2677
I8444
tp2678
tp2679
Rp2680
I1420834916
sg2
(g3
g4
(S'46.22.111.50'
p2681
I8444
tp2682
tp2683
Rp2684
I1420842038
sg2
(g3
g4
(S'79.202.249.42'
p2685
I8444
tp2686
tp2687
Rp2688
I1421630160
sg2
(g3
g4
(S'85.180.239.99'
p2689
I8444
tp2690
tp2691
Rp2692
I1420835625
sg2
(g3
g4
(S'91.90.15.143'
p2693
I8444
tp2694
tp2695
Rp2696
I1420840387
sg2
(g3
g4
(S'71.57.47.250'
p2697
I8444
tp2698
tp2699
Rp2700
I1420840743
sg2
(g3
g4
(S'171.5.177.198'
p2701
I8444
tp2702
tp2703
Rp2704
I1421623451
sg2
(g3
g4
(S'62.44.134.209'
p2705
I8444
tp2706
tp2707
Rp2708
I1420735784
sg2
(g3
g4
(S'162.253.128.168'
p2709
I8444
tp2710
tp2711
Rp2712
I1420835731
sg2
(g3
g4
(S'85.17.188.139'
p2713
I8444
tp2714
tp2715
Rp2716
I1420738300
sg2
(g3
g4
(S'96.38.132.105'
p2717
I8444
tp2718
tp2719
Rp2720
I1420824976
sg2
(g3
g4
(S'108.59.13.41'
p2721
I8444
tp2722
tp2723
Rp2724
I1420840617
sg2
(g3
g4
(S'79.134.235.5'
p2725
I9002
tp2726
tp2727
Rp2728
I1420831059
sg2
(g3
g4
(S'85.127.218.208'
p2729
I8444
tp2730
tp2731
Rp2732
I1420819851
sg2
(g3
g4
(S'80.72.60.65'
p2733
I8444
tp2734
tp2735
Rp2736
I1420826668
sg2
(g3
g4
(S'84.130.250.109'
p2737
I8444
tp2738
tp2739
Rp2740
I1420842046
sg2
(g3
g4
(S'79.117.59.175'
p2741
I8444
tp2742
tp2743
Rp2744
I1420730757
sg2
(g3
g4
(S'5.166.68.68'
p2745
I8444
tp2746
tp2747
Rp2748
I1420738160
sg2
(g3
g4
(S'185.17.204.109'
p2749
I8444
tp2750
tp2751
Rp2752
I1420833437
sg2
(g3
g4
(S'46.162.38.194'
p2753
I8444
tp2754
tp2755
Rp2756
I1420759936
sg2
(g3
g4
(S'95.130.15.96'
p2757
I9154
tp2758
tp2759
Rp2760
I1420729463
sg2
(g3
g4
(S'2003:81:6d52:bf00:d4ca:6bdd:e115:225d'
p2761
I8444
tp2762
tp2763
Rp2764
I1420817252
sg2
(g3
g4
(S'77.8.166.168'
p2765
I8444
tp2766
tp2767
Rp2768
I1420830050
sg2
(g3
g4
(S'91.240.112.10'
p2769
I51547
tp2770
tp2771
Rp2772
I1420737230
sg2
(g3
g4
(S'181.167.58.81'
p2773
I8444
tp2774
tp2775
Rp2776
I1421626064
sg2
(g3
g4
(S'173.216.4.127'
p2777
I8444
tp2778
tp2779
Rp2780
I1420830816
sg2
(g3
g4
(S'91.240.112.10'
p2781
I56799
tp2782
tp2783
Rp2784
I1420826195
sg2
(g3
g4
(S'91.0.165.70'
p2785
I8444
tp2786
tp2787
Rp2788
I1420730867
sg2
(g3
g4
(S'184.75.211.218'
p2789
I8444
tp2790
tp2791
Rp2792
I1421625913
sg2
(g3
g4
(S'76.123.243.111'
p2793
I8444
tp2794
tp2795
Rp2796
I1420840323
sg2
(g3
g4
(S'109.163.234.9'
p2797
I8444
tp2798
tp2799
Rp2800
I1420830914
sg2
(g3
g4
(S'5.199.168.190'
p2801
I8444
tp2802
tp2803
Rp2804
I1420840320
sg2
(g3
g4
(S'2601:d:5b00:38b:6963:11a0:9618:2bba'
p2805
I8444
tp2806
tp2807
Rp2808
I1420844768
sg2
(g3
g4
(S'2001:0:5ef5:79fb:20f7:23ef:aceb:e521'
p2809
I8444
tp2810
tp2811
Rp2812
I1420815277
sg2
(g3
g4
(S'124.127.64.150'
p2813
I8444
tp2814
tp2815
Rp2816
I1420766602
sg2
(g3
g4
(S'81.7.8.101'
p2817
I8080
tp2818
tp2819
Rp2820
I1420765762
sg2
(g3
g4
(S'204.8.156.142'
p2821
I47041
tp2822
tp2823
Rp2824
I1420835135
sg2
(g3
g4
(S'89.17.30.86'
p2825
I8444
tp2826
tp2827
Rp2828
I1420844582
sg2
(g3
g4
(S'69.87.224.75'
p2829
I8444
tp2830
tp2831
Rp2832
I1421626593
sg2
(g3
g4
(S'195.72.211.1'
p2833
I8444
tp2834
tp2835
Rp2836
I1421621970
sg2
(g3
g4
(S'74.120.223.184'
p2837
I8444
tp2838
tp2839
Rp2840
I1420735169
sg2
(g3
g4
(S'104.245.145.74'
p2841
I8444
tp2842
tp2843
Rp2844
I1421626067
sg2
(g3
g4
(S'176.10.99.200'
p2845
I8444
tp2846
tp2847
Rp2848
I1420830348
sg2
(g3
g4
(S'93.189.2.18'
p2849
I62066
tp2850
tp2851
Rp2852
I1421625546
sg2
(g3
g4
(S'92.80.95.228'
p2853
I8444
tp2854
tp2855
Rp2856
I1420814905
sg2
(g3
g4
(S'84.189.172.103'
p2857
I8444
tp2858
tp2859
Rp2860
I1420824852
sg2
(g3
g4
(S'76.20.238.249'
p2861
I8444
tp2862
tp2863
Rp2864
I1420824175
sg2
(g3
g4
(S'91.240.112.10'
p2865
I51618
tp2866
tp2867
Rp2868
I1420737326
sg2
(g3
g4
(S'2001:0:5ef5:79fd:382d:292c:b0b9:b389'
p2869
I8444
tp2870
tp2871
Rp2872
I1420829778
sg2
(g3
g4
(S'86.11.226.123'
p2873
I8444
tp2874
tp2875
Rp2876
I1420840387
sg2
(g3
g4
(S'79.250.122.193'
p2877
I8444
tp2878
tp2879
Rp2880
I1420840322
sg2
(g3
g4
(S'119.234.5.208'
p2881
I8444
tp2882
tp2883
Rp2884
I1420727594
sg2
(g3
g4
(S'115.188.61.42'
p2885
I8444
tp2886
tp2887
Rp2888
I1420834788
sg2
(g3
g4
(S'109.146.7.139'
p2889
I8444
tp2890
tp2891
Rp2892
I1420843565
sg2
(g3
g4
(S'46.223.128.89'
p2893
I8444
tp2894
tp2895
Rp2896
I1420762934
sg2
(g3
g4
(S'83.177.235.171'
p2897
I8444
tp2898
tp2899
Rp2900
I1420837770
sg2
(g3
g4
(S'121.228.148.26'
p2901
I8444
tp2902
tp2903
Rp2904
I1420834217
sg2
(g3
g4
(S'137.63.71.142'
p2905
I8444
tp2906
tp2907
Rp2908
I1421625917
sg2
(g3
g4
(S'78.34.149.200'
p2909
I8444
tp2910
tp2911
Rp2912
I1420757261
sg2
(g3
g4
(S'77.95.229.23'
p2913
I8444
tp2914
tp2915
Rp2916
I1420842236
sg2
(g3
g4
(S'178.71.251.86'
p2917
I8444
tp2918
tp2919
Rp2920
I1420819009
sg2
(g3
g4
(S'95.211.138.33'
p2921
I8444
tp2922
tp2923
Rp2924
I1420736634
sg2
(g3
g4
(S'213.24.126.57'
p2925
I8444
tp2926
tp2927
Rp2928
I1420836099
sg2
(g3
g4
(S'2001:0:9d38:6ab8:34fa:41c:ab57:9031'
p2929
I8444
tp2930
tp2931
Rp2932
I1420834257
sg2
(g3
g4
(S'97.83.124.29'
p2933
I8444
tp2934
tp2935
Rp2936
I1420834201
sg2
(g3
g4
(S'162.253.129.50'
p2937
I8444
tp2938
tp2939
Rp2940
I1420842380
sg2
(g3
g4
(S'91.119.131.133'
p2941
I8444
tp2942
tp2943
Rp2944
I1420842735
sg2
(g3
g4
(S'85.212.77.100'
p2945
I8444
tp2946
tp2947
Rp2948
I1420734474
sg2
(g3
g4
(S'2003:46:319:a901:fc6b:79d0:f1dd:750d'
p2949
I8444
tp2950
tp2951
Rp2952
I1420826747
sg2
(g3
g4
(S'12.32.90.76'
p2953
I8444
tp2954
tp2955
Rp2956
I1420842034
sg2
(g3
g4
(S'190.42.184.105'
p2957
I8444
tp2958
tp2959
Rp2960
I1420735801
sg2
(g3
g4
(S'78.51.255.176'
p2961
I8444
tp2962
tp2963
Rp2964
I1420756361
sg2
(g3
g4
(S'2a02:214b:8108:7500:df:a862:2bcb:3e88'
p2965
I8444
tp2966
tp2967
Rp2968
I1420830534
sg2
(g3
g4
(S'2.120.75.167'
p2969
I8444
tp2970
tp2971
Rp2972
I1420844595
sg2
(g3
g4
(S'109.236.85.16'
p2973
I8444
tp2974
tp2975
Rp2976
I1420829734
sg2
(g3
g4
(S'162.253.128.50'
p2977
I8444
tp2978
tp2979
Rp2980
I1420842431
sg2
(g3
g4
(S'2002:8d2d:c687::8d2d:c687'
p2981
I8445
tp2982
tp2983
Rp2984
I1420730206
sg2
(g3
g4
(S'94.212.139.164'
p2985
I8444
tp2986
tp2987
Rp2988
I1420815830
sg2
(g3
g4
(S'183.171.185.94'
p2989
I8444
tp2990
tp2991
Rp2992
I1421628568
sg2
(g3
g4
(S'54.174.246.48'
p2993
I8444
tp2994
tp2995
Rp2996
I1420816953
sg2
(g3
g4
(S'91.240.112.10'
p2997
I56412
tp2998
tp2999
Rp3000
I1420825040
sg2
(g3
g4
(S'84.52.51.108'
p3001
I8444
tp3002
tp3003
Rp3004
I1420735950
sg2
(g3
g4
(S'2001:0:9d38:6ab8:18a0:3d63:b389:d4ce'
p3005
I8444
tp3006
tp3007
Rp3008
I1420766684
sg2
(g3
g4
(S'81.11.251.147'
p3009
I8444
tp3010
tp3011
Rp3012
I1420837975
sg2
(g3
g4
(S'178.9.201.144'
p3013
I8444
tp3014
tp3015
Rp3016
I1420839159
sg2
(g3
g4
(S'178.74.103.228'
p3017
I8444
tp3018
tp3019
Rp3020
I1420835436
sg2
(g3
g4
(S'2601:6:7d00:148:213:e8ff:fe35:df9d'
p3021
I8444
tp3022
tp3023
Rp3024
I1420837764
sg2
(g3
g4
(S'37.187.129.166'
p3025
I8444
tp3026
tp3027
Rp3028
I1421630967
sg2
(g3
g4
(S'2002:5cf4:67de::5cf4:67de'
p3029
I8444
tp3030
tp3031
Rp3032
I1420758170
sg2
(g3
g4
(S'176.10.99.201'
p3033
I8444
tp3034
tp3035
Rp3036
I1420758797
sg2
(g3
g4
(S'131.188.6.21'
p3037
I8444
tp3038
tp3039
Rp3040
I1420823310
sg2
(g3
g4
(S'96.47.226.20'
p3041
I9002
tp3042
tp3043
Rp3044
I1421625545
sg2
(g3
g4
(S'96.47.226.20'
p3045
I8080
tp3046
tp3047
Rp3048
I1420759035
sg2
(g3
g4
(S'146.228.112.252'
p3049
I8448
tp3050
tp3051
Rp3052
I1421630362
sg2
(g3
g4
(S'80.132.91.124'
p3053
I8444
tp3054
tp3055
Rp3056
I1420836786
sg2
(g3
g4
(S'88.18.96.22'
p3057
I8444
tp3058
tp3059
Rp3060
I1421621603
sg2
(g3
g4
(S'128.90.88.35'
p3061
I8444
tp3062
tp3063
Rp3064
I1420734636
sg2
(g3
g4
(S'87.173.20.244'
p3065
I8444
tp3066
tp3067
Rp3068
I1420827359
sg2
(g3
g4
(S'2001:0:9d38:6abd:1c3c:710:baa8:1fb4'
p3069
I8444
tp3070
tp3071
Rp3072
I1420835333
sg2
(g3
g4
(S'93.222.155.185'
p3073
I8444
tp3074
tp3075
Rp3076
I1420828299
sg2
(g3
g4
(S'2001:0:9d38:6ab8:cc7:1e60:fdad:11b'
p3077
I8444
tp3078
tp3079
Rp3080
I1421621797
sg2
(g3
g4
(S'37.59.162.218'
p3081
I8080
tp3082
tp3083
Rp3084
I1420837460
sg2
(g3
g4
(S'37.193.247.98'
p3085
I8444
tp3086
tp3087
Rp3088
I1420725320
sg2
(g3
g4
(S'2.176.31.7'
p3089
I8444
tp3090
tp3091
Rp3092
I1420819955
sg2
(g3
g4
(S'91.240.112.10'
p3093
I51239
tp3094
tp3095
Rp3096
I1420736421
sg2
(g3
g4
(S'178.2.208.177'
p3097
I8444
tp3098
tp3099
Rp3100
I1420839104
sg2
(g3
g4
(S'93.218.108.85'
p3101
I8444
tp3102
tp3103
Rp3104
I1420831904
sg2
(g3
g4
(S'73.40.132.226'
p3105
I8444
tp3106
tp3107
Rp3108
I1420842023
sg2
(g3
g4
(S'2003:48:2968:c800:f481:9267:5af8:fe7b'
p3109
I8444
tp3110
tp3111
Rp3112
I1420727166
sg2
(g3
g4
(S'192.3.158.120'
p3113
I8444
tp3114
tp3115
Rp3116
I1421628029
sg2
(g3
g4
(S'89.168.232.196'
p3117
I8444
tp3118
tp3119
Rp3120
I1420840412
sg2
(g3
g4
(S'162.219.179.130'
p3121
I8444
tp3122
tp3123
Rp3124
I1420840326
sg2
(g3
g4
(S'2404:160:0:f:0:1:9ede:d351'
p3125
I8080
tp3126
tp3127
Rp3128
I1420839075
sg2
(g3
g4
(S'77.95.229.12'
p3129
I8444
tp3130
tp3131
Rp3132
I1421627377
sg2
(g3
g4
(S'46.165.222.245'
p3133
I8444
tp3134
tp3135
Rp3136
I1420844367
sg2
(g3
g4
(S'107.170.206.102'
p3137
I8444
tp3138
tp3139
Rp3140
I1420843459
sg2
(g3
g4
(S'185.47.200.121'
p3141
I8444
tp3142
tp3143
Rp3144
I1420826680
sg2
(g3
g4
(S'217.232.27.117'
p3145
I8444
tp3146
tp3147
Rp3148
I1420761603
sg2
(g3
g4
(S'82.157.69.127'
p3149
I8444
tp3150
tp3151
Rp3152
I1420834535
sg2
(g3
g4
(S'77.0.139.108'
p3153
I8444
tp3154
tp3155
Rp3156
I1421625737
sg2
(g3
g4
(S'91.119.81.162'
p3157
I8444
tp3158
tp3159
Rp3160
I1420727161
sg2
(g3
g4
(S'2002:b03a:78b5::1'
p3161
I8444
tp3162
tp3163
Rp3164
I1420840390
sg2
(g3
g4
(S'2.219.220.125'
p3165
I8444
tp3166
tp3167
Rp3168
I1421626010
sg2
(g3
g4
(S'217.85.112.190'
p3169
I8445
tp3170
tp3171
Rp3172
I1420830114
sg2
(g3
g4
(S'79.109.184.71'
p3173
I8444
tp3174
tp3175
Rp3176
I1421627616
sg2
(g3
g4
(S'107.145.39.207'
p3177
I8444
tp3178
tp3179
Rp3180
I1420839736
sg2
(g3
g4
(S'91.240.112.10'
p3181
I51647
tp3182
tp3183
Rp3184
I1420737746
sg2
(g3
g4
(S'86.120.211.147'
p3185
I8444
tp3186
tp3187
Rp3188
I1420814496
sg2
(g3
g4
(S'79.243.199.201'
p3189
I8444
tp3190
tp3191
Rp3192
I1420732893
sg2
(g3
g4
(S'212.124.190.78'
p3193
I8444
tp3194
tp3195
Rp3196
I1420828454
sg2
(g3
g4
(S'94.11.17.228'
p3197
I8444
tp3198
tp3199
Rp3200
I1420840402
sg2
(g3
g4
(S'2001:1640::28:3'
p3201
I8444
tp3202
tp3203
Rp3204
I1420733914
sg2
(g3
g4
(S'162.219.176.202'
p3205
I8444
tp3206
tp3207
Rp3208
I1421628517
sg2
(g3
g4
(S'2001:0:5ef5:79fb:48b:2f7d:43fd:2e85'
p3209
I8444
tp3210
tp3211
Rp3212
I1420822339
sg2
(g3
g4
(S'46.16.37.5'
p3213
I8444
tp3214
tp3215
Rp3216
I1420756346
sg2
(g3
g4
(S'62.146.50.210'
p3217
I8444
tp3218
tp3219
Rp3220
I1421631023
sg2
(g3
g4
(S'199.19.95.188'
p3221
I8444
tp3222
tp3223
Rp3224
I1421629323
sg2
(g3
g4
(S'96.226.8.161'
p3225
I8444
tp3226
tp3227
Rp3228
I1420828046
sg2
(g3
g4
(S'188.103.166.46'
p3229
I54323
tp3230
tp3231
Rp3232
I1421626556
sg2
(g3
g4
(S'192.198.202.218'
p3233
I8444
tp3234
tp3235
Rp3236
I1420840143
sg2
(g3
g4
(S'194.71.236.30'
p3237
I48444
tp3238
tp3239
Rp3240
I1421626679
sg2
(g3
g4
(S'87.121.52.40'
p3241
I8444
tp3242
tp3243
Rp3244
I1420839906
sg2
(g3
g4
(S'162.219.179.107'
p3245
I8444
tp3246
tp3247
Rp3248
I1420725839
sg2
(g3
g4
(S'194.96.157.66'
p3249
I8444
tp3250
tp3251
Rp3252
I1420758520
sg2
(g3
g4
(S'2001:0:9d38:90d7:2c7b:2e9c:6803:fb4'
p3253
I8444
tp3254
tp3255
Rp3256
I1421625744
sg2
(g3
g4
(S'126.107.152.254'
p3257
I8444
tp3258
tp3259
Rp3260
I1420838386
sg2
(g3
g4
(S'91.240.112.10'
p3261
I51590
tp3262
tp3263
Rp3264
I1420737279
sg2
(g3
g4
(S'171.25.193.235'
p3265
I9002
tp3266
tp3267
Rp3268
I1420832166
sg2
(g3
g4
(S'24.60.135.213'
p3269
I8444
tp3270
tp3271
Rp3272
I1420737405
sg2
(g3
g4
(S'108.181.123.11'
p3273
I8444
tp3274
tp3275
Rp3276
I1420765425
sg2
(g3
g4
(S'46.165.251.148'
p3277
I8444
tp3278
tp3279
Rp3280
I1420728260
sg2
(g3
g4
(S'178.125.206.17'
p3281
I8444
tp3282
tp3283
Rp3284
I1420840823
sg2
(g3
g4
(S'128.54.10.38'
p3285
I8444
tp3286
tp3287
Rp3288
I1420832198
sg2
(g3
g4
(S'38.102.49.2'
p3289
I8444
tp3290
tp3291
Rp3292
I1420817249
sg2
(g3
g4
(S'62.195.219.12'
p3293
I8444
tp3294
tp3295
Rp3296
I1420836460
sg2
(g3
g4
(S'95.113.253.67'
p3297
I8444
tp3298
tp3299
Rp3300
I1420765832
sg2
(g3
g4
(S'89.173.14.144'
p3301
I8444
tp3302
tp3303
Rp3304
I1420731638
sg2
(g3
g4
(S'162.253.128.163'
p3305
I8444
tp3306
tp3307
Rp3308
I1420821826
sg2
(g3
g4
(S'23.28.68.159'
p3309
I8444
tp3310
tp3311
Rp3312
I1421625049
sg2
(g3
g4
(S'217.85.222.43'
p3313
I8444
tp3314
tp3315
Rp3316
I1421628038
sg2
(g3
g4
(S'82.211.201.188'
p3317
I8444
tp3318
tp3319
Rp3320
I1420842289
sg2
(g3
g4
(S'95.211.205.151'
p3321
I8444
tp3322
tp3323
Rp3324
I1421623407
sg2
(g3
g4
(S'2002:c765:b9a3::c765:b9a3'
p3325
I8444
tp3326
tp3327
Rp3328
I1420836608
sg2
(g3
g4
(S'162.252.81.76'
p3329
I8444
tp3330
tp3331
Rp3332
I1420840781
sg2
(g3
g4
(S'197.205.199.213'
p3333
I8444
tp3334
tp3335
Rp3336
I1420816300
sg2
(g3
g4
(S'2001:0:5ef5:79fd:106b:b5a:ab60:3c12'
p3337
I8444
tp3338
tp3339
Rp3340
I1420840338
sg2
(g3
g4
(S'188.233.137.159'
p3341
I8444
tp3342
tp3343
Rp3344
I1420831647
sg2
(g3
g4
(S'2001:41d0:fe7c:e00:e1d4:8497:ea31:bc65'
p3345
I8444
tp3346
tp3347
Rp3348
I1420727013
sg2
(g3
g4
(S'85.50.215.33'
p3349
I8444
tp3350
tp3351
Rp3352
I1420729680
sg2
(g3
g4
(S'77.57.211.94'
p3353
I8444
tp3354
tp3355
Rp3356
I1420730954
sg2
(g3
g4
(S'46.4.248.18'
p3357
I8444
tp3358
tp3359
Rp3360
I1420731595
sg2
(g3
g4
(S'195.154.126.43'
p3361
I8444
tp3362
tp3363
Rp3364
I1420831447
sg2
(g3
g4
(S'86.127.186.119'
p3365
I8444
tp3366
tp3367
Rp3368
I1420826894
sg2
(g3
g4
(S'31.185.190.24'
p3369
I8444
tp3370
tp3371
Rp3372
I1421621558
sg2
(g3
g4
(S'109.166.136.40'
p3373
I8444
tp3374
tp3375
Rp3376
I1420828467
sg2
(g3
g4
(S'193.138.219.234'
p3377
I8445
tp3378
tp3379
Rp3380
I1420840383
sg2
(g3
g4
(S'184.75.213.250'
p3381
I8444
tp3382
tp3383
Rp3384
I1420735297
sg2
(g3
g4
(S'2602:30a:2c77:d210:e9b0:a79f:2a6b:2874'
p3385
I8444
tp3386
tp3387
Rp3388
I1420736004
sg2
(g3
g4
(S'77.12.30.239'
p3389
I8444
tp3390
tp3391
Rp3392
I1420727436
sg2
(g3
g4
(S'2a02:810d:8340:1bc0:9458:9a35:3dd2:ff48'
p3393
I8444
tp3394
tp3395
Rp3396
I1420829640
sg2
(g3
g4
(S'212.83.185.245'
p3397
I13254
tp3398
tp3399
Rp3400
I1420819391
sg2
(g3
g4
(S'212.95.7.91'
p3401
I8444
tp3402
tp3403
Rp3404
I1420844048
sg2
(g3
g4
(S'83.177.167.50'
p3405
I8444
tp3406
tp3407
Rp3408
I1420836601
sg2
(g3
g4
(S'140.182.72.20'
p3409
I8444
tp3410
tp3411
Rp3412
I1420822810
sg2
(g3
g4
(S'104.245.146.10'
p3413
I8444
tp3414
tp3415
Rp3416
I1420825791
sg2
(g3
g4
(S'212.96.72.132'
p3417
I8444
tp3418
tp3419
Rp3420
I1420830710
sg2
(g3
g4
(S'213.162.68.75'
p3421
I8444
tp3422
tp3423
Rp3424
I1420838416
sg2
(g3
g4
(S'79.255.53.138'
p3425
I8444
tp3426
tp3427
Rp3428
I1420736368
sg2
(g3
g4
(S'88.217.181.83'
p3429
I8444
tp3430
tp3431
Rp3432
I1420758378
sg2
(g3
g4
(S'83.143.100.19'
p3433
I8444
tp3434
tp3435
Rp3436
I1421630081
sg2
(g3
g4
(S'2001:0:9d38:6abd:22:df3:cd78:25d6'
p3437
I8444
tp3438
tp3439
Rp3440
I1420724776
sg2
(g3
g4
(S'47.65.38.59'
p3441
I8444
tp3442
tp3443
Rp3444
I1420827768
sg2
(g3
g4
(S'81.241.223.70'
p3445
I8444
tp3446
tp3447
Rp3448
I1420824219
sg2
(g3
g4
(S'84.61.0.118'
p3449
I8444
tp3450
tp3451
Rp3452
I1420734470
sg2
(g3
g4
(S'95.184.5.102'
p3453
I8444
tp3454
tp3455
Rp3456
I1420733678
sg2
(g3
g4
(S'79.163.250.48'
p3457
I8444
tp3458
tp3459
Rp3460
I1420735186
sg2
(g3
g4
(S'80.134.232.226'
p3461
I8444
tp3462
tp3463
Rp3464
I1420736047
sg2
(g3
g4
(S'217.71.45.70'
p3465
I8444
tp3466
tp3467
Rp3468
I1421629866
sg2
(g3
g4
(S'2002:5111:18fd::5111:18fd'
p3469
I8444
tp3470
tp3471
Rp3472
I1420727401
sg2
(g3
g4
(S'77.247.181.162'
p3473
I9150
tp3474
tp3475
Rp3476
I1420840853
sg2
(g3
g4
(S'94.204.13.179'
p3477
I8444
tp3478
tp3479
Rp3480
I1420736223
sg2
(g3
g4
(S'85.182.98.222'
p3481
I8444
tp3482
tp3483
Rp3484
I1420841834
sg2
(g3
g4
(S'2.247.220.203'
p3485
I8444
tp3486
tp3487
Rp3488
I1420814681
sg2
(g3
g4
(S'62.225.36.6'
p3489
I8444
tp3490
tp3491
Rp3492
I1420756365
sg2
(g3
g4
(S'95.248.244.219'
p3493
I8444
tp3494
tp3495
Rp3496
I1420814895
sg2
(g3
g4
(S'108.32.65.29'
p3497
I8444
tp3498
tp3499
Rp3500
I1420836748
sg2
(g3
g4
(S'84.228.123.179'
p3501
I8444
tp3502
tp3503
Rp3504
I1420833679
sg2
(g3
g4
(S'50.30.249.44'
p3505
I8444
tp3506
tp3507
Rp3508
I1420840326
sg2
(g3
g4
(S'83.251.208.150'
p3509
I8444
tp3510
tp3511
Rp3512
I1420733587
sg2
(g3
g4
(S'178.191.110.147'
p3513
I8444
tp3514
tp3515
Rp3516
I1420731657
sg2
(g3
g4
(S'46.74.253.10'
p3517
I8444
tp3518
tp3519
Rp3520
I1420840288
sg2
(g3
g4
(S'217.234.105.162'
p3521
I8444
tp3522
tp3523
Rp3524
I1420836871
sg2
(g3
g4
(S'162.253.130.26'
p3525
I8444
tp3526
tp3527
Rp3528
I1420836633
sg2
(g3
g4
(S'188.192.191.73'
p3529
I8444
tp3530
tp3531
Rp3532
I1420732300
sg2
(g3
g4
(S'77.109.139.87'
p3533
I8444
tp3534
tp3535
Rp3536
I1420840400
sg2
(g3
g4
(S'72.52.75.27'
p3537
I8445
tp3538
tp3539
Rp3540
I1420844199
sg2
(g3
g4
(S'89.112.47.231'
p3541
I8444
tp3542
tp3543
Rp3544
I1420839799
sg2
(g3
g4
(S'186.6.41.160'
p3545
I8444
tp3546
tp3547
Rp3548
I1420737720
sg2
(g3
g4
(S'91.96.246.151'
p3549
I8444
tp3550
tp3551
Rp3552
I1420737673
sg2
(g3
g4
(S'180.191.121.181'
p3553
I8444
tp3554
tp3555
Rp3556
I1420839759
sg2
(g3
g4
(S'75.97.21.69'
p3557
I8444
tp3558
tp3559
Rp3560
I1420840400
sg2
(g3
g4
(S'5.9.107.38'
p3561
I9154
tp3562
tp3563
Rp3564
I1420729503
sg2
(g3
g4
(S'94.242.246.23'
p3565
I65535
tp3566
tp3567
Rp3568
I1420828455
sg2
(g3
g4
(S'95.128.166.35'
p3569
I8444
tp3570
tp3571
Rp3572
I1420840302
sg2
(g3
g4
(S'93.190.40.56'
p3573
I8444
tp3574
tp3575
Rp3576
I1420825537
sg2
(g3
g4
(S'181.138.167.213'
p3577
I8444
tp3578
tp3579
Rp3580
I1420823627
sg2
(g3
g4
(S'201.166.76.238'
p3581
I8444
tp3582
tp3583
Rp3584
I1420838427
sg2
(g3
g4
(S'178.217.187.39'
p3585
I6881
tp3586
tp3587
Rp3588
I1420844091
sg2
(g3
g4
(S'84.23.52.1'
p3589
I8444
tp3590
tp3591
Rp3592
I1420844566
sg2
(g3
g4
(S'213.136.75.42'
p3593
I8444
tp3594
tp3595
Rp3596
I1421622527
sg2
(g3
g4
(S'91.240.112.10'
p3597
I51173
tp3598
tp3599
Rp3600
I1420736358
sg2
(g3
g4
(S'2601:b:ac80:a3:3901:883d:1b2e:4ac1'
p3601
I8444
tp3602
tp3603
Rp3604
I1421619672
sg2
(g3
g4
(S'89.154.26.165'
p3605
I8444
tp3606
tp3607
Rp3608
I1420762365
sg2
(g3
g4
(S'193.11.137.201'
p3609
I8444
tp3610
tp3611
Rp3612
I1420841558
sg2
(g3
g4
(S'89.79.248.158'
p3613
I8444
tp3614
tp3615
Rp3616
I1420839905
sg2
(g3
g4
(S'162.219.179.68'
p3617
I8444
tp3618
tp3619
Rp3620
I1420843467
sg2
(g3
g4
(S'2001:5c0:1400:a::9'
p3621
I8444
tp3622
tp3623
Rp3624
I1421621783
sg2
(g3
g4
(S'184.75.211.163'
p3625
I8444
tp3626
tp3627
Rp3628
I1420724644
sg2
(g3
g4
(S'96.47.226.20'
p3629
I6881
tp3630
tp3631
Rp3632
I1420840312
sg2
(g3
g4
(S'166.70.207.2'
p3633
I1337
tp3634
tp3635
Rp3636
I1420833479
sg2
(g3
g4
(S'69.112.233.170'
p3637
I8444
tp3638
tp3639
Rp3640
I1420732183
sg2
(g3
g4
(S'2001:16d8:dd24:0:86c9:681e:f931:256'
p3641
I8444
tp3642
tp3643
Rp3644
I1420840424
sg2
(g3
g4
(S'184.75.214.2'
p3645
I8444
tp3646
tp3647
Rp3648
I1420842452
sg2
(g3
g4
(S'80.229.110.35'
p3649
I8444
tp3650
tp3651
Rp3652
I1420842091
sg2
(g3
g4
(S'46.165.196.229'
p3653
I8444
tp3654
tp3655
Rp3656
I1420835604
sg2
(g3
g4
(S'210.54.35.9'
p3657
I8444
tp3658
tp3659
Rp3660
I1420840823
sg2
(g3
g4
(S'83.192.220.49'
p3661
I8444
tp3662
tp3663
Rp3664
I1420829165
sg2
(g3
g4
(S'85.76.142.146'
p3665
I8444
tp3666
tp3667
Rp3668
I1420844120
sg2
(g3
g4
(S'24.17.110.175'
p3669
I8444
tp3670
tp3671
Rp3672
I1421629604
sg2
(g3
g4
(S'178.62.155.6'
p3673
I8444
tp3674
tp3675
Rp3676
I1420840868
sg2
(g3
g4
(S'37.120.70.233'
p3677
I8444
tp3678
tp3679
Rp3680
I1420731262
sg2
(g3
g4
(S'62.210.74.186'
p3681
I8445
tp3682
tp3683
Rp3684
I1420840141
sg2
(g3
g4
(S'192.99.150.152'
p3685
I49233
tp3686
tp3687
Rp3688
I1420825450
sg2
(g3
g4
(S'75.65.248.155'
p3689
I8445
tp3690
tp3691
Rp3692
I1421620831
sg2
(g3
g4
(S'82.211.223.3'
p3693
I22444
tp3694
tp3695
Rp3696
I1420834358
sg2
(g3
g4
(S'178.238.223.67'
p3697
I8444
tp3698
tp3699
Rp3700
I1420834510
sg2
(g3
g4
(S'24.31.142.16'
p3701
I8444
tp3702
tp3703
Rp3704
I1420763095
sg2
(g3
g4
(S'81.89.0.204'
p3705
I8444
tp3706
tp3707
Rp3708
I1420837922
sg2
(g3
g4
(S'84.19.190.133'
p3709
I8444
tp3710
tp3711
Rp3712
I1421623815
sg2
(g3
g4
(S'84.2.11.17'
p3713
I8444
tp3714
tp3715
Rp3716
I1420842342
sg2
(g3
g4
(S'90.219.33.120'
p3717
I8444
tp3718
tp3719
Rp3720
I1420819818
sg2
(g3
g4
(S'183.171.185.61'
p3721
I8445
tp3722
tp3723
Rp3724
I1420732703
sg2
(g3
g4
(S'62.210.74.137'
p3725
I9002
tp3726
tp3727
Rp3728
I1420735399
sg2
(g3
g4
(S'181.110.9.15'
p3729
I8444
tp3730
tp3731
Rp3732
I1420736342
sg2
(g3
g4
(S'96.47.226.21'
p3733
I8445
tp3734
tp3735
Rp3736
I1420838274
sg2
(g3
g4
(S'174.27.73.145'
p3737
I8444
tp3738
tp3739
Rp3740
I1420842816
sg2
(g3
g4
(S'50.190.130.225'
p3741
I8444
tp3742
tp3743
Rp3744
I1420840840
sg2
(g3
g4
(S'46.246.111.207'
p3745
I8444
tp3746
tp3747
Rp3748
I1420840418
sg2
(g3
g4
(S'109.192.194.41'
p3749
I8444
tp3750
tp3751
Rp3752
I1420828781
sg2
(g3
g4
(S'37.187.129.166'
p3753
I9002
tp3754
tp3755
Rp3756
I1420831079
sg2
(g3
g4
(S'79.237.72.196'
p3757
I8444
tp3758
tp3759
Rp3760
I1420727118
sg2
(g3
g4
(S'2003:62:4f61:b650:6112:e387:b51c:fda5'
p3761
I8444
tp3762
tp3763
Rp3764
I1421627998
sg2
(g3
g4
(S'92.202.125.60'
p3765
I8444
tp3766
tp3767
Rp3768
I1420830264
sg2
(g3
g4
(S'194.230.155.134'
p3769
I8444
tp3770
tp3771
Rp3772
I1421620528
sg2
(g3
g4
(S'104.245.146.2'
p3773
I8444
tp3774
tp3775
Rp3776
I1420840152
sg2
(g3
g4
(S'92.160.32.82'
p3777
I8444
tp3778
tp3779
Rp3780
I1421629893
sg2
(g3
g4
(S'24.9.125.72'
p3781
I8444
tp3782
tp3783
Rp3784
I1421620541
sg2
(g3
g4
(S'141.237.28.177'
p3785
I8444
tp3786
tp3787
Rp3788
I1421619762
sg2
(g3
g4
(S'91.240.112.10'
p3789
I51216
tp3790
tp3791
Rp3792
I1420736379
sg2
(g3
g4
(S'79.141.166.25'
p3793
I8444
tp3794
tp3795
Rp3796
I1420825020
sg2
(g3
g4
(S'212.47.231.154'
p3797
I8444
tp3798
tp3799
Rp3800
I1420828088
sg2
(g3
g4
(S'193.110.157.49'
p3801
I8444
tp3802
tp3803
Rp3804
I1420842851
sg2
(g3
g4
(S'88.78.176.243'
p3805
I8444
tp3806
tp3807
Rp3808
I1420821713
sg2
(g3
g4
(S'104.245.146.98'
p3809
I8444
tp3810
tp3811
Rp3812
I1420735277
sg2
(g3
g4
(S'178.197.226.42'
p3813
I8444
tp3814
tp3815
Rp3816
I1421621752
sg2
(g3
g4
(S'50.250.218.161'
p3817
I8444
tp3818
tp3819
Rp3820
I1420843390
sg2
(g3
g4
(S'184.75.221.90'
p3821
I8444
tp3822
tp3823
Rp3824
I1420730760
sg2
(g3
g4
(S'50.165.91.212'
p3825
I8444
tp3826
tp3827
Rp3828
I1420833252
sg2
(g3
g4
(S'2a02:8070:6198:8b00:b5dd:2c69:2cf5:5580'
p3829
I8444
tp3830
tp3831
Rp3832
I1420760646
sg2
(g3
g4
(S'77.127.159.88'
p3833
I8444
tp3834
tp3835
Rp3836
I1420839090
sg2
(g3
g4
(S'124.202.191.5'
p3837
I8444
tp3838
tp3839
Rp3840
I1420839583
sg2
(g3
g4
(S'2001:0:9d38:6abd:1cf8:3b8c:51ea:95f2'
p3841
I8444
tp3842
tp3843
Rp3844
I1420834879
sg2
(g3
g4
(S'217.95.108.52'
p3845
I8444
tp3846
tp3847
Rp3848
I1420835792
sg2
(g3
g4
(S'78.111.186.147'
p3849
I8444
tp3850
tp3851
Rp3852
I1420840681
sg2
(g3
g4
(S'24.191.4.142'
p3853
I8444
tp3854
tp3855
Rp3856
I1420844504
sg2
(g3
g4
(S'212.114.252.71'
p3857
I8444
tp3858
tp3859
Rp3860
I1420842036
sg2
(g3
g4
(S'74.215.33.74'
p3861
I8444
tp3862
tp3863
Rp3864
I1420764883
sg2
(g3
g4
(S'89.133.137.77'
p3865
I8444
tp3866
tp3867
Rp3868
I1420832904
sg2
(g3
g4
(S'184.75.223.26'
p3869
I8444
tp3870
tp3871
Rp3872
I1420842465
sg2
(g3
g4
(S'2001:0:9d38:6ab8:2cb4:1814:9e8a:5041'
p3873
I8444
tp3874
tp3875
Rp3876
I1420814278
sg2
(g3
g4
(S'188.138.39.22'
p3877
I8444
tp3878
tp3879
Rp3880
I1420843167
sg2
(g3
g4
(S'185.8.237.29'
p3881
I8444
tp3882
tp3883
Rp3884
I1420736650
sg2
(g3
g4
(S'79.255.52.124'
p3885
I8444
tp3886
tp3887
Rp3888
I1420838393
sg2
(g3
g4
(S'198.27.74.59'
p3889
I8444
tp3890
tp3891
Rp3892
I1420822367
sg2
(g3
g4
(S'98.218.125.214'
p3893
I8444
tp3894
tp3895
Rp3896
I1420843665
sg2
(g3
g4
(S'178.93.60.95'
p3897
I8444
tp3898
tp3899
Rp3900
I1420815149
sg2
(g3
g4
(S'5.199.130.188'
p3901
I8444
tp3902
tp3903
Rp3904
I1420832832
sg2
(g3
g4
(S'96.59.193.99'
p3905
I8444
tp3906
tp3907
Rp3908
I1420835640
sg2
(g3
g4
(S'79.237.84.174'
p3909
I8444
tp3910
tp3911
Rp3912
I1420833134
sg2
(g3
g4
(S'5.135.159.128'
p3913
I8444
tp3914
tp3915
Rp3916
I1420833831
sg2
(g3
g4
(S'91.240.112.10'
p3917
I54767
tp3918
tp3919
Rp3920
I1420819885
sg2
(g3
g4
(S'66.168.88.171'
p3921
I8444
tp3922
tp3923
Rp3924
I1420761502
sg2
(g3
g4
(S'220.239.237.235'
p3925
I8444
tp3926
tp3927
Rp3928
I1420759961
sg2
(g3
g4
(S'124.207.50.248'
p3929
I8444
tp3930
tp3931
Rp3932
I1420839710
sg2
(g3
g4
(S'95.130.15.96'
p3933
I8444
tp3934
tp3935
Rp3936
I1420838907
sg2
(g3
g4
(S'188.168.145.88'
p3937
I8444
tp3938
tp3939
Rp3940
I1420737792
sg2
(g3
g4
(S'184.59.4.96'
p3941
I8444
tp3942
tp3943
Rp3944
I1420817234
sg2
(g3
g4
(S'174.34.194.80'
p3945
I8444
tp3946
tp3947
Rp3948
I1421630029
sg2
(g3
g4
(S'83.139.131.57'
p3949
I8444
tp3950
tp3951
Rp3952
I1420731757
sg2
(g3
g4
(S'173.208.166.218'
p3953
I443
tp3954
tp3955
Rp3956
I1420838256
sg2
(g3
g4
(S'89.144.209.186'
p3957
I8444
tp3958
tp3959
Rp3960
I1420839844
sg2
(g3
g4
(S'75.152.65.14'
p3961
I8444
tp3962
tp3963
Rp3964
I1420838381
sg2
(g3
g4
(S'58.10.221.224'
p3965
I8444
tp3966
tp3967
Rp3968
I1421626033
sg2
(g3
g4
(S'80.189.20.67'
p3969
I8444
tp3970
tp3971
Rp3972
I1420736196
sg2
(g3
g4
(S'2601:7:101:5b80:61ff:6c86:b6df:7244'
p3973
I8444
tp3974
tp3975
Rp3976
I1420763249
sg2
(g3
g4
(S'104.245.146.102'
p3977
I8444
tp3978
tp3979
Rp3980
I1420843172
sg2
(g3
g4
(S'178.62.155.8'
p3981
I8444
tp3982
tp3983
Rp3984
I1420842475
sg2
(g3
g4
(S'72.80.114.106'
p3985
I8336
tp3986
tp3987
Rp3988
I1421626702
sg2
(g3
g4
(S'2001:470:66:119::2'
p3989
I8444
tp3990
tp3991
Rp3992
I1420837764
sg2
(g3
g4
(S'64.32.122.191'
p3993
I8444
tp3994
tp3995
Rp3996
I1420730824
sg2
(g3
g4
(S'91.240.112.10'
p3997
I56296
tp3998
tp3999
Rp4000
I1420824706
sg2
(g3
g4
(S'134.121.109.2'
p4001
I8444
tp4002
tp4003
Rp4004
I1420730142
sg2
(g3
g4
(S'91.240.112.10'
p4005
I55070
tp4006
tp4007
Rp4008
I1420821177
sg2
(g3
g4
(S'69.14.227.15'
p4009
I8444
tp4010
tp4011
Rp4012
I1421631020
sg2
(g3
g4
(S'188.40.23.94'
p4013
I8444
tp4014
tp4015
Rp4016
I1420837978
sg2
(g3
g4
(S'5.196.249.85'
p4017
I9150
tp4018
tp4019
Rp4020
I1420840811
sg2
(g3
g4
(S'2a02:908:eb72:2c80:4d2c:6b12:806a:8e46'
p4021
I8444
tp4022
tp4023
Rp4024
I1420734444
sg2
(g3
g4
(S'217.111.26.83'
p4025
I8444
tp4026
tp4027
Rp4028
I1421621465
sg2
(g3
g4
(S'89.157.47.232'
p4029
I8444
tp4030
tp4031
Rp4032
I1420840136
sg2
(g3
g4
(S'88.207.153.27'
p4033
I8444
tp4034
tp4035
Rp4036
I1420837852
sg2
(g3
g4
(S'78.247.183.88'
p4037
I8444
tp4038
tp4039
Rp4040
I1421624680
sg2
(g3
g4
(S'104.245.146.134'
p4041
I8444
tp4042
tp4043
Rp4044
I1420819227
sg2
(g3
g4
(S'110.78.179.30'
p4045
I8444
tp4046
tp4047
Rp4048
I1420733028
sg2
(g3
g4
(S'183.171.185.13'
p4049
I8444
tp4050
tp4051
Rp4052
I1420824000
sg2
(g3
g4
(S'2001:0:9d38:6ab8:283b:18c:4fc2:c8f1'
p4053
I8444
tp4054
tp4055
Rp4056
I1420831493
sg2
(g3
g4
(S'109.201.137.167'
p4057
I8444
tp4058
tp4059
Rp4060
I1420737119
sg2
(g3
g4
(S'72.193.239.138'
p4061
I8444
tp4062
tp4063
Rp4064
I1421621642
sg2
(g3
g4
(S'37.72.42.85'
p4065
I8444
tp4066
tp4067
Rp4068
I1420835192
sg2
(g3
g4
(S'73.161.129.105'
p4069
I8444
tp4070
tp4071
Rp4072
I1421621763
sg2
(g3
g4
(S'94.23.231.57'
p4073
I8444
tp4074
tp4075
Rp4076
I1420830867
sg2
(g3
g4
(S'80.101.202.119'
p4077
I8444
tp4078
tp4079
Rp4080
I1420815273
sg2
(g3
g4
(S'109.247.54.144'
p4081
I8444
tp4082
tp4083
Rp4084
I1420829297
sg2
(g3
g4
(S'5.45.99.75'
p4085
I8444
tp4086
tp4087
Rp4088
I1420845021
sg2
(g3
g4
(S'2a02:8070:6198:8b00:5c94:53db:b3ef:a25f'
p4089
I8444
tp4090
tp4091
Rp4092
I1420827060
sg2
(g3
g4
(S'188.22.54.182'
p4093
I8444
tp4094
tp4095
Rp4096
I1420840389
sg2
(g3
g4
(S'101.161.76.187'
p4097
I8444
tp4098
tp4099
Rp4100
I1421620972
sg2
(g3
g4
(S'94.242.239.175'
p4101
I8444
tp4102
tp4103
Rp4104
I1420831863
sg2
(g3
g4
(S'83.171.164.28'
p4105
I8444
tp4106
tp4107
Rp4108
I1420761596
sg2
(g3
g4
(S'81.171.85.156'
p4109
I8444
tp4110
tp4111
Rp4112
I1420844951
sg2
(g3
g4
(S'116.88.135.227'
p4113
I8444
tp4114
tp4115
Rp4116
I1420841634
sg2
(g3
g4
(S'198.21.205.72'
p4117
I8444
tp4118
tp4119
Rp4120
I1420817299
sg2
(g3
g4
(S'59.14.242.213'
p4121
I8444
tp4122
tp4123
Rp4124
I1420819051
sg2
(g3
g4
(S'91.240.112.10'
p4125
I64633
tp4126
tp4127
Rp4128
I1420727937
sg2
(g3
g4
(S'76.112.188.14'
p4129
I8444
tp4130
tp4131
Rp4132
I1420737345
sg2
(g3
g4
(S'177.252.121.21'
p4133
I8444
tp4134
tp4135
Rp4136
I1420765789
sg2
(g3
g4
(S'24.203.118.148'
p4137
I8444
tp4138
tp4139
Rp4140
I1420842519
sg2
(g3
g4
(S'94.185.85.171'
p4141
I8444
tp4142
tp4143
Rp4144
I1420816328
sg2
(g3
g4
(S'2003:58:8f69:da35:41e9:476a:fd4b:8bc9'
p4145
I8444
tp4146
tp4147
Rp4148
I1421622826
sg2
(g3
g4
(S'46.114.12.175'
p4149
I8444
tp4150
tp4151
Rp4152
I1420843390
sg2
(g3
g4
(S'84.42.251.196'
p4153
I8444
tp4154
tp4155
Rp4156
I1420842452
sg2
(g3
g4
(S'109.201.143.53'
p4157
I8444
tp4158
tp4159
Rp4160
I1420835928
sg2
(g3
g4
(S'173.191.66.60'
p4161
I8444
tp4162
tp4163
Rp4164
I1420842060
sg2
(g3
g4
(S'82.137.11.223'
p4165
I8444
tp4166
tp4167
Rp4168
I1420737122
sg2
(g3
g4
(S'67.160.1.53'
p4169
I8444
tp4170
tp4171
Rp4172
I1421629013
sg2
(g3
g4
(S'2a02:29e0:1:277:216:3eff:fe14:bd00'
p4173
I8444
tp4174
tp4175
Rp4176
I1420839101
sg2
(g3
g4
(S'178.189.210.72'
p4177
I8444
tp4178
tp4179
Rp4180
I1420737469
sg2
(g3
g4
(S'188.165.186.253'
p4181
I8444
tp4182
tp4183
Rp4184
I1420736073
sg2
(g3
g4
(S'151.252.240.75'
p4185
I8444
tp4186
tp4187
Rp4188
I1421629621
sg2
(g3
g4
(S'179.110.50.249'
p4189
I8444
tp4190
tp4191
Rp4192
I1420737958
sg2
(g3
g4
(S'87.98.43.238'
p4193
I8444
tp4194
tp4195
Rp4196
I1420729353
sg2
(g3
g4
(S'76.121.23.19'
p4197
I8444
tp4198
tp4199
Rp4200
I1420835744
sg2
(g3
g4
(S'91.240.112.10'
p4201
I46408
tp4202
tp4203
Rp4204
I1420816970
sg2
(g3
g4
(S'5.79.74.140'
p4205
I8444
tp4206
tp4207
Rp4208
I1420826797
sg2
(g3
g4
(S'69.250.24.50'
p4209
I8444
tp4210
tp4211
Rp4212
I1420831227
sg2
(g3
g4
(S'69.124.245.241'
p4213
I9150
tp4214
tp4215
Rp4216
I1420766154
sg2
(g3
g4
(S'184.75.214.138'
p4217
I8444
tp4218
tp4219
Rp4220
I1420840946
sg2
(g3
g4
(S'46.5.18.43'
p4221
I8444
tp4222
tp4223
Rp4224
I1420840485
sg2
(g3
g4
(S'84.23.53.79'
p4225
I8444
tp4226
tp4227
Rp4228
I1420730459
sg2
(g3
g4
(S'2001:0:5ef5:79fd:2441:336d:b0d7:447a'
p4229
I8444
tp4230
tp4231
Rp4232
I1420835048
sg2
(g3
g4
(S'2.90.205.236'
p4233
I8444
tp4234
tp4235
Rp4236
I1420819438
sg2
(g3
g4
(S'98.246.209.81'
p4237
I8444
tp4238
tp4239
Rp4240
I1420731385
sg2
(g3
g4
(S'24.125.114.245'
p4241
I8444
tp4242
tp4243
Rp4244
I1421623452
sg2
(g3
g4
(S'199.188.100.154'
p4245
I8444
tp4246
tp4247
Rp4248
I1420842034
sg2
(g3
g4
(S'46.183.218.232'
p4249
I8444
tp4250
tp4251
Rp4252
I1420835192
sg2
(g3
g4
(S'188.134.79.126'
p4253
I8444
tp4254
tp4255
Rp4256
I1420838459
sg2
(g3
g4
(S'50.97.94.16'
p4257
I8446
tp4258
tp4259
Rp4260
I1420831545
sg2
(g3
g4
(S'176.10.99.207'
p4261
I8444
tp4262
tp4263
Rp4264
I1420766754
sg2
(g3
g4
(S'93.154.162.31'
p4265
I8444
tp4266
tp4267
Rp4268
I1420819967
sg2
(g3
g4
(S'91.240.112.10'
p4269
I54429
tp4270
tp4271
Rp4272
I1420816978
sg2
(g3
g4
(S'85.127.86.176'
p4273
I8444
tp4274
tp4275
Rp4276
I1420737003
sg2
(g3
g4
(S'82.131.119.169'
p4277
I8444
tp4278
tp4279
Rp4280
I1420815147
sg2
(g3
g4
(S'162.230.190.236'
p4281
I8444
tp4282
tp4283
Rp4284
I1420838050
sg2
(g3
g4
(S'95.130.15.251'
p4285
I8444
tp4286
tp4287
Rp4288
I1420838262
sg2
(g3
g4
(S'199.254.238.251'
p4289
I8444
tp4290
tp4291
Rp4292
I1420728220
sg2
(g3
g4
(S'93.174.90.30'
p4293
I8444
tp4294
tp4295
Rp4296
I1420841314
sg2
(g3
g4
(S'162.219.178.194'
p4297
I8444
tp4298
tp4299
Rp4300
I1420725838
sg2
(g3
g4
(S'188.193.222.14'
p4301
I8444
tp4302
tp4303
Rp4304
I1420733670
sg2
(g3
g4
(S'91.240.112.10'
p4305
I55478
tp4306
tp4307
Rp4308
I1420821820
sg2
(g3
g4
(S'162.253.130.130'
p4309
I8444
tp4310
tp4311
Rp4312
I1420835711
sg2
(g3
g4
(S'178.62.8.189'
p4313
I8444
tp4314
tp4315
Rp4316
I1420825025
sg2
(g3
g4
(S'132.199.124.190'
p4317
I8444
tp4318
tp4319
Rp4320
I1420821044
sg2
(g3
g4
(S'5.222.77.51'
p4321
I8444
tp4322
tp4323
Rp4324
I1420828797
sg2
(g3
g4
(S'115.187.225.81'
p4325
I8444
tp4326
tp4327
Rp4328
I1420828946
sg2
(g3
g4
(S'49.80.231.139'
p4329
I8444
tp4330
tp4331
Rp4332
I1420728644
sg2
(g3
g4
(S'184.75.221.34'
p4333
I8446
tp4334
tp4335
Rp4336
I1420736381
sg2
(g3
g4
(S'83.227.173.83'
p4337
I8444
tp4338
tp4339
Rp4340
I1420844090
sg2
(g3
g4
(S'2002:d407:dc23::d407:dc23'
p4341
I8444
tp4342
tp4343
Rp4344
I1420831574
sg2
(g3
g4
(S'46.115.184.104'
p4345
I8444
tp4346
tp4347
Rp4348
I1420726653
sg2
(g3
g4
(S'146.185.141.57'
p4349
I8444
tp4350
tp4351
Rp4352
I1420824426
sg2
(g3
g4
(S'104.40.197.222'
p4353
I8444
tp4354
tp4355
Rp4356
I1420738425
sg2
(g3
g4
(S'94.242.222.208'
p4357
I8444
tp4358
tp4359
Rp4360
I1421620577
sg2
(g3
g4
(S'184.75.211.142'
p4361
I8446
tp4362
tp4363
Rp4364
I1420736430
sg2
(g3
g4
(S'166.70.207.2'
p4365
I8444
tp4366
tp4367
Rp4368
I1420838246
sg2
(g3
g4
(S'201.252.134.106'
p4369
I8444
tp4370
tp4371
Rp4372
I1420826667
sg2
(g3
g4
(S'212.117.160.123'
p4373
I8444
tp4374
tp4375
Rp4376
I1420726932
sg2
(g3
g4
(S'91.240.112.10'
p4377
I50950
tp4378
tp4379
Rp4380
I1420735559
sg2
(g3
g4
(S'37.203.20.91'
p4381
I8444
tp4382
tp4383
Rp4384
I1421630160
sg2
(g3
g4
(S'89.73.177.236'
p4385
I8444
tp4386
tp4387
Rp4388
I1420825599
sg2
(g3
g4
(S'93.167.245.178'
p4389
I8444
tp4390
tp4391
Rp4392
I1420817958
sg2
(g3
g4
(S'76.210.226.146'
p4393
I8444
tp4394
tp4395
Rp4396
I1420765504
sg2
(g3
g4
(S'84.168.114.55'
p4397
I8444
tp4398
tp4399
Rp4400
I1420727844
sg2
(g3
g4
(S'183.171.185.107'
p4401
I8444
tp4402
tp4403
Rp4404
I1420815479
sg2
(g3
g4
(S'78.182.125.196'
p4405
I8444
tp4406
tp4407
Rp4408
I1421620476
sg2
(g3
g4
(S'91.240.112.10'
p4409
I51125
tp4410
tp4411
Rp4412
I1420736328
sg2
(g3
g4
(S'95.211.184.244'
p4413
I8444
tp4414
tp4415
Rp4416
I1420815453
sg2
(g3
g4
(S'84.120.12.156'
p4417
I8444
tp4418
tp4419
Rp4420
I1420725396
sg2
(g3
g4
(S'2001:a60:109d:8501:f8ac:148:1de6:776e'
p4421
I8444
tp4422
tp4423
Rp4424
I1420817829
sg2
(g3
g4
(S'188.138.39.15'
p4425
I8444
tp4426
tp4427
Rp4428
I1420841930
sg2
(g3
g4
(S'176.194.29.120'
p4429
I8444
tp4430
tp4431
Rp4432
I1421630047
sg2
(g3
g4
(S'95.129.140.119'
p4433
I8444
tp4434
tp4435
Rp4436
I1420840367
sg2
(g3
g4
(S'87.114.106.86'
p4437
I8444
tp4438
tp4439
Rp4440
I1420827435
sg2
(g3
g4
(S'2001:a60:1018:c901:dc48:f6d9:1699:4712'
p4441
I8444
tp4442
tp4443
Rp4444
I1420730560
sg2
(g3
g4
(S'68.13.204.95'
p4445
I8444
tp4446
tp4447
Rp4448
I1420758556
sg2
(g3
g4
(S'50.188.246.25'
p4449
I27579
tp4450
tp4451
Rp4452
I1420735500
sg2
(g3
g4
(S'185.32.124.131'
p4453
I8444
tp4454
tp4455
Rp4456
I1420827948
sg2
(g3
g4
(S'74.69.38.24'
p4457
I8444
tp4458
tp4459
Rp4460
I1420826743
sg2
(g3
g4
(S'69.246.95.241'
p4461
I8444
tp4462
tp4463
Rp4464
I1420815767
sg2
(g3
g4
(S'78.55.163.212'
p4465
I8444
tp4466
tp4467
Rp4468
I1420841255
sg2
(g3
g4
(S'2002:8d2d:c687::8d2d:c687'
p4469
I8444
tp4470
tp4471
Rp4472
I1420730205
sg2
(g3
g4
(S'46.5.2.35'
p4473
I8444
tp4474
tp4475
Rp4476
I1420837321
sg2
(g3
g4
(S'195.50.152.102'
p4477
I8444
tp4478
tp4479
Rp4480
I1420839917
sg2
(g3
g4
(S'203.217.65.15'
p4481
I4848
tp4482
tp4483
Rp4484
I1420819153
sg2
(g3
g4
(S'162.253.129.242'
p4485
I8444
tp4486
tp4487
Rp4488
I1420842431
sg2
(g3
g4
(S'93.189.2.18'
p4489
I51481
tp4490
tp4491
Rp4492
I1421622656
sg2
(g3
g4
(S'183.171.185.81'
p4493
I8444
tp4494
tp4495
Rp4496
I1420822343
sg2
(g3
g4
(S'89.101.72.196'
p4497
I8444
tp4498
tp4499
Rp4500
I1421622836
sg2
(g3
g4
(S'62.195.99.74'
p4501
I8444
tp4502
tp4503
Rp4504
I1420842616
sg2
(g3
g4
(S'185.17.204.43'
p4505
I8444
tp4506
tp4507
Rp4508
I1420821753
sg2
(g3
g4
(S'96.251.35.87'
p4509
I8444
tp4510
tp4511
Rp4512
I1421624660
sg2
(g3
g4
(S'94.242.246.24'
p4513
I6881
tp4514
tp4515
Rp4516
I1420841086
sg2
(g3
g4
(S'178.93.6.47'
p4517
I8444
tp4518
tp4519
Rp4520
I1420737104
sg2
(g3
g4
(S'94.242.246.23'
p4521
I8445
tp4522
tp4523
Rp4524
I1421620773
sg2
(g3
g4
(S'87.8.241.75'
p4525
I8444
tp4526
tp4527
Rp4528
I1420828726
sg2
(g3
g4
(S'88.10.214.225'
p4529
I8444
tp4530
tp4531
Rp4532
I1420732255
sg2
(g3
g4
(S'92.208.67.94'
p4533
I8444
tp4534
tp4535
Rp4536
I1420844293
sg2
(g3
g4
(S'94.242.239.164'
p4537
I8444
tp4538
tp4539
Rp4540
I1420822649
sg2
(g3
g4
(S'31.172.240.226'
p4541
I8444
tp4542
tp4543
Rp4544
I1421631023
sg2
(g3
g4
(S'78.150.12.168'
p4545
I8444
tp4546
tp4547
Rp4548
I1420831057
sg2
(g3
g4
(S'183.171.185.122'
p4549
I8448
tp4550
tp4551
Rp4552
I1421629670
sg2
(g3
g4
(S'137.63.71.90'
p4553
I8444
tp4554
tp4555
Rp4556
I1421625959
sg2
(g3
g4
(S'95.211.169.35'
p4557
I9154
tp4558
tp4559
Rp4560
I1420729452
sg2
(g3
g4
(S'95.156.163.121'
p4561
I8444
tp4562
tp4563
Rp4564
I1420834610
sg2
(g3
g4
(S'104.245.146.110'
p4565
I8444
tp4566
tp4567
Rp4568
I1420823395
sg2
(g3
g4
(S'79.134.235.5'
p4569
I8444
tp4570
tp4571
Rp4572
I1420827759
sg2
(g3
g4
(S'37.157.195.83'
p4573
I8080
tp4574
tp4575
Rp4576
I1420820914
sg2
(g3
g4
(S'14.162.164.19'
p4577
I8444
tp4578
tp4579
Rp4580
I1420842616
sg2
(g3
g4
(S'113.210.134.17'
p4581
I8444
tp4582
tp4583
Rp4584
I1421628330
sg2
(g3
g4
(S'72.76.203.5'
p4585
I8444
tp4586
tp4587
Rp4588
I1420834246
sg2
(g3
g4
(S'93.106.3.110'
p4589
I8444
tp4590
tp4591
Rp4592
I1420834355
sg2
(g3
g4
(S'188.22.48.104'
p4593
I8444
tp4594
tp4595
Rp4596
I1420735598
sg2
(g3
g4
(S'83.26.68.71'
p4597
I8444
tp4598
tp4599
Rp4600
I1420736926
sg2
(g3
g4
(S'94.217.14.11'
p4601
I8444
tp4602
tp4603
Rp4604
I1420759208
sg2
(g3
g4
(S'178.162.195.12'
p4605
I8444
tp4606
tp4607
Rp4608
I1421624719
sg2
(g3
g4
(S'91.240.112.10'
p4609
I54532
tp4610
tp4611
Rp4612
I1420817939
sg2
(g3
g4
(S'46.115.146.40'
p4613
I8444
tp4614
tp4615
Rp4616
I1420820053
sg2
(g3
g4
(S'70.66.84.201'
p4617
I8444
tp4618
tp4619
Rp4620
I1421627609
sg2
(g3
g4
(S'86.162.78.109'
p4621
I8444
tp4622
tp4623
Rp4624
I1420763579
sg2
(g3
g4
(S'96.44.189.102'
p4625
I9150
tp4626
tp4627
Rp4628
I1420841055
sg2
(g3
g4
(S'37.187.51.210'
p4629
I9150
tp4630
tp4631
Rp4632
I1420828792
sg2
(g3
g4
(S'121.99.21.146'
p4633
I8444
tp4634
tp4635
Rp4636
I1420839071
sg2
(g3
g4
(S'95.92.40.7'
p4637
I8444
tp4638
tp4639
Rp4640
I1420835630
sg2
(g3
g4
(S'184.105.220.24'
p4641
I8444
tp4642
tp4643
Rp4644
I1421627091
sg2
(g3
g4
(S'88.134.166.131'
p4645
I8444
tp4646
tp4647
Rp4648
I1420841001
sg2
(g3
g4
(S'94.242.246.24'
p4649
I9003
tp4650
tp4651
Rp4652
I1421619891
sg2
(g3
g4
(S'90.200.80.50'
p4653
I8444
tp4654
tp4655
Rp4656
I1420826696
sg2
(g3
g4
(S'37.138.185.207'
p4657
I8444
tp4658
tp4659
Rp4660
I1420834299
sg2
(g3
g4
(S'98.112.50.16'
p4661
I8444
tp4662
tp4663
Rp4664
I1420826730
sg2
(g3
g4
(S'109.201.133.44'
p4665
I8444
tp4666
tp4667
Rp4668
I1420729274
sg2
(g3
g4
(S'212.7.192.145'
p4669
I8444
tp4670
tp4671
Rp4672
I1420822518
sg2
(g3
g4
(S'109.201.154.132'
p4673
I8444
tp4674
tp4675
Rp4676
I1420822684
sg2
(g3
g4
(S'83.20.18.247'
p4677
I8444
tp4678
tp4679
Rp4680
I1421626921
sg2
(g3
g4
(S'104.232.1.99'
p4681
I8444
tp4682
tp4683
Rp4684
I1420844187
sg2
(g3
g4
(S'63.231.28.163'
p4685
I8444
tp4686
tp4687
Rp4688
I1420734500
sg2
(g3
g4
(S'50.155.18.20'
p4689
I8444
tp4690
tp4691
Rp4692
I1421624190
sg2
(g3
g4
(S'184.75.215.162'
p4693
I8444
tp4694
tp4695
Rp4696
I1420835444
sg2
(g3
g4
(S'2001:0:9d38:6ab8:30a1:c22:cd41:7d1e'
p4697
I8444
tp4698
tp4699
Rp4700
I1420828428
sg2
(g3
g4
(S'85.127.88.254'
p4701
I8444
tp4702
tp4703
Rp4704
I1420727004
sg2
(g3
g4
(S'74.115.6.141'
p4705
I8444
tp4706
tp4707
Rp4708
I1420823549
sg2
(g3
g4
(S'86.46.159.4'
p4709
I8444
tp4710
tp4711
Rp4712
I1420843125
sg2
(g3
g4
(S'109.225.220.171'
p4713
I8444
tp4714
tp4715
Rp4716
I1420725768
sg2
(g3
g4
(S'46.28.53.172'
p4717
I8444
tp4718
tp4719
Rp4720
I1420827254
sg2
(g3
g4
(S'81.89.0.196'
p4721
I8444
tp4722
tp4723
Rp4724
I1420728021
sg2
(g3
g4
(S'91.197.10.234'
p4725
I8444
tp4726
tp4727
Rp4728
I1421622304
sg2
(g3
g4
(S'166.70.207.2'
p4729
I9006
tp4730
tp4731
Rp4732
I1420831050
sg2
(g3
g4
(S'188.162.64.23'
p4733
I8444
tp4734
tp4735
Rp4736
I1420836441
sg2
(g3
g4
(S'87.93.188.23'
p4737
I8444
tp4738
tp4739
Rp4740
I1420837129
sg2
(g3
g4
(S'91.240.112.10'
p4741
I56243
tp4742
tp4743
Rp4744
I1420824631
sg2
(g3
g4
(S'162.253.131.66'
p4745
I8444
tp4746
tp4747
Rp4748
I1420827335
sg2
(g3
g4
(S'91.240.112.10'
p4749
I47435
tp4750
tp4751
Rp4752
I1420817012
sg2
(g3
g4
(S'185.61.148.41'
p4753
I8444
tp4754
tp4755
Rp4756
I1420835278
sg2
(g3
g4
(S'176.114.35.88'
p4757
I8444
tp4758
tp4759
Rp4760
I1420729294
sg2
(g3
g4
(S'188.192.234.237'
p4761
I8444
tp4762
tp4763
Rp4764
I1420831308
sg2
(g3
g4
(S'62.96.156.94'
p4765
I8444
tp4766
tp4767
Rp4768
I1420825344
sg2
(g3
g4
(S'184.75.208.82'
p4769
I8444
tp4770
tp4771
Rp4772
I1420825944
sg2
(g3
g4
(S'18.187.1.68'
p4773
I9002
tp4774
tp4775
Rp4776
I1420816365
sg2
(g3
g4
(S'79.220.212.33'
p4777
I8444
tp4778
tp4779
Rp4780
I1420840434
sg2
(g3
g4
(S'87.178.171.96'
p4781
I8444
tp4782
tp4783
Rp4784
I1420735437
sg2
(g3
g4
(S'37.120.107.152'
p4785
I8444
tp4786
tp4787
Rp4788
I1420757029
sg2
(g3
g4
(S'2a02:8071:9193:c900:715a:603d:2b5b:1bad'
p4789
I8444
tp4790
tp4791
Rp4792
I1420836183
sg2
(g3
g4
(S'46.116.183.190'
p4793
I8444
tp4794
tp4795
Rp4796
I1420819201
sg2
(g3
g4
(S'49.80.229.251'
p4797
I8444
tp4798
tp4799
Rp4800
I1420841594
sg2
(g3
g4
(S'69.204.32.195'
p4801
I8444
tp4802
tp4803
Rp4804
I1420829341
sg2
(g3
g4
(S'90.213.62.124'
p4805
I8621
tp4806
tp4807
Rp4808
I1420843865
sg2
(g3
g4
(S'202.56.13.85'
p4809
I8444
tp4810
tp4811
Rp4812
I1420834991
sg2
(g3
g4
(S'75.147.22.141'
p4813
I8444
tp4814
tp4815
Rp4816
I1420840401
sg2
(g3
g4
(S'96.47.226.22'
p4817
I8444
tp4818
tp4819
Rp4820
I1420839684
sg2
(g3
g4
(S'86.28.240.34'
p4821
I8444
tp4822
tp4823
Rp4824
I1420834192
sg2
(g3
g4
(S'109.201.154.228'
p4825
I8444
tp4826
tp4827
Rp4828
I1420762458
sg2
(g3
g4
(S'76.99.60.106'
p4829
I8444
tp4830
tp4831
Rp4832
I1420838521
sg2
(g3
g4
(S'104.53.106.144'
p4833
I8444
tp4834
tp4835
Rp4836
I1420823978
sg2
(g3
g4
(S'190.222.254.208'
p4837
I8444
tp4838
tp4839
Rp4840
I1421627184
sg2
(g3
g4
(S'2001:0:9d38:90d7:24bf:323b:97de:f9a1'
p4841
I8444
tp4842
tp4843
Rp4844
I1420825729
sg2
(g3
g4
(S'116.192.7.16'
p4845
I8444
tp4846
tp4847
Rp4848
I1420820307
sg2
(g3
g4
(S'5.18.52.192'
p4849
I8444
tp4850
tp4851
Rp4852
I1420737177
sg2
(g3
g4
(S'173.63.59.19'
p4853
I8444
tp4854
tp4855
Rp4856
I1420836049
sg2
(g3
g4
(S'70.73.74.185'
p4857
I8444
tp4858
tp4859
Rp4860
I1420834297
sg2
(g3
g4
(S'18.187.1.68'
p4861
I8444
tp4862
tp4863
Rp4864
I1420840407
sg2
(g3
g4
(S'93.89.41.121'
p4865
I8444
tp4866
tp4867
Rp4868
I1420840417
sg2
(g3
g4
(S'94.216.235.132'
p4869
I8444
tp4870
tp4871
Rp4872
I1420836624
sg2
(g3
g4
(S'78.141.80.224'
p4873
I8444
tp4874
tp4875
Rp4876
I1420831122
sg2
(g3
g4
(S'91.240.112.10'
p4877
I51687
tp4878
tp4879
Rp4880
I1420737762
sg2
(g3
g4
(S'184.75.212.250'
p4881
I8444
tp4882
tp4883
Rp4884
I1421626072
sg2
(g3
g4
(S'162.219.178.210'
p4885
I8444
tp4886
tp4887
Rp4888
I1420724613
sg2
(g3
g4
(S'2001:0:9d38:6ab8:c67:11a4:a488:7c7a'
p4889
I8444
tp4890
tp4891
Rp4892
I1420830965
sg2
(g3
g4
(S'95.89.232.103'
p4893
I8444
tp4894
tp4895
Rp4896
I1420735104
sg2
(g3
g4
(S'46.4.248.20'
p4897
I8444
tp4898
tp4899
Rp4900
I1420731996
sg2
(g3
g4
(S'92.84.84.126'
p4901
I8444
tp4902
tp4903
Rp4904
I1420834616
sg2
(g3
g4
(S'84.159.215.129'
p4905
I8444
tp4906
tp4907
Rp4908
I1420831620
sg2
(g3
g4
(S'186.95.96.218'
p4909
I8444
tp4910
tp4911
Rp4912
I1420839935
sg2
(g3
g4
(S'77.247.181.162'
p4913
I9002
tp4914
tp4915
Rp4916
I1420842056
sg2
(g3
g4
(S'162.219.176.82'
p4917
I8444
tp4918
tp4919
Rp4920
I1420840152
sg2
(g3
g4
(S'181.139.182.20'
p4921
I8444
tp4922
tp4923
Rp4924
I1421625295
sg2
(g3
g4
(S'46.182.106.190'
p4925
I9150
tp4926
tp4927
Rp4928
I1420826148
sg2
(g3
g4
(S'87.178.172.141'
p4929
I8444
tp4930
tp4931
Rp4932
I1420828215
sg2
(g3
g4
(S'89.239.148.88'
p4933
I8444
tp4934
tp4935
Rp4936
I1420827470
sg2
(g3
g4
(S'184.75.221.114'
p4937
I8444
tp4938
tp4939
Rp4940
I1420843192
sg2
(g3
g4
(S'191.185.230.190'
p4941
I8444
tp4942
tp4943
Rp4944
I1421630192
sg2
(g3
g4
(S'2a02:750:a1:3333::2e'
p4945
I8444
tp4946
tp4947
Rp4948
I1420729756
sg2
(g3
g4
(S'89.12.106.63'
p4949
I8444
tp4950
tp4951
Rp4952
I1420730425
sg2
(g3
g4
(S'2001:0:9d38:90d7:1c4e:1b72:a807:f0a5'
p4953
I8444
tp4954
tp4955
Rp4956
I1420824251
sg2
(g3
g4
(S'240d:0:a826:d000:81f8:9bd6:7d5f:4def'
p4957
I8444
tp4958
tp4959
Rp4960
I1420734495
sg2
(g3
g4
(S'104.245.144.238'
p4961
I8444
tp4962
tp4963
Rp4964
I1420819223
sg2
(g3
g4
(S'178.204.115.24'
p4965
I8444
tp4966
tp4967
Rp4968
I1420838026
sg2
(g3
g4
(S'91.240.112.10'
p4969
I51565
tp4970
tp4971
Rp4972
I1420737276
sg2
(g3
g4
(S'2601:8:8080:2d5:61db:66d9:b168:31c'
p4973
I8444
tp4974
tp4975
Rp4976
I1420818413
sg2
(g3
g4
(S'151.226.104.186'
p4977
I8445
tp4978
tp4979
Rp4980
I1421629699
sg2
(g3
g4
(S'2001:5c0:1400:a::13'
p4981
I8444
tp4982
tp4983
Rp4984
I1420834253
sg2
(g3
g4
(S'139.195.40.31'
p4985
I8444
tp4986
tp4987
Rp4988
I1420835139
sg2
(g3
g4
(S'177.34.29.204'
p4989
I8444
tp4990
tp4991
Rp4992
I1420724911
sg2
(g3
g4
(S'104.245.144.138'
p4993
I8444
tp4994
tp4995
Rp4996
I1420825779
sg2
(g3
g4
(S'88.77.56.206'
p4997
I8444
tp4998
tp4999
Rp5000
I1420822326
sg2
(g3
g4
(S'2001:0:5ef5:79fb:34bb:3a30:ac1c:52ac'
p5001
I8444
tp5002
tp5003
Rp5004
I1420819126
sg2
(g3
g4
(S'109.201.152.25'
p5005
I8444
tp5006
tp5007
Rp5008
I1420827266
sg2
(g3
g4
(S'37.187.225.122'
p5009
I26763
tp5010
tp5011
Rp5012
I1420838725
sg2
(g3
g4
(S'78.243.202.37'
p5013
I8444
tp5014
tp5015
Rp5016
I1420822436
sg2
(g3
g4
(S'82.211.223.3'
p5017
I9002
tp5018
tp5019
Rp5020
I1420733617
sg2
(g3
g4
(S'115.199.179.226'
p5021
I8444
tp5022
tp5023
Rp5024
I1420762831
sg2
(g3
g4
(S'212.85.163.235'
p5025
I8444
tp5026
tp5027
Rp5028
I1420842272
sg2
(g3
g4
(S'91.240.112.10'
p5029
I56299
tp5030
tp5031
Rp5032
I1420824706
sg2
(g3
g4
(S'77.5.40.69'
p5033
I8444
tp5034
tp5035
Rp5036
I1420815183
sg2
(g3
g4
(S'37.120.99.106'
p5037
I8444
tp5038
tp5039
Rp5040
I1420839156
sg2
(g3
g4
(S'5.199.165.30'
p5041
I8444
tp5042
tp5043
Rp5044
I1420841777
sg2
(g3
g4
(S'95.62.192.174'
p5045
I8444
tp5046
tp5047
Rp5048
I1420843461
sg2
(g3
g4
(S'178.1.118.216'
p5049
I8444
tp5050
tp5051
Rp5052
I1421626675
sg2
(g3
g4
(S'77.247.181.162'
p5053
I8444
tp5054
tp5055
Rp5056
I1421627932
sg2
(g3
g4
(S'81.218.225.168'
p5057
I8444
tp5058
tp5059
Rp5060
I1420726753
sg2
(g3
g4
(S'91.33.161.246'
p5061
I8444
tp5062
tp5063
Rp5064
I1420728383
sg2
(g3
g4
(S'78.97.59.4'
p5065
I8444
tp5066
tp5067
Rp5068
I1420835368
sg2
(g3
g4
(S'74.254.73.226'
p5069
I8444
tp5070
tp5071
Rp5072
I1420737579
sg2
(g3
g4
(S'76.120.105.242'
p5073
I8444
tp5074
tp5075
Rp5076
I1420841020
sg2
(g3
g4
(S'79.243.219.157'
p5077
I8444
tp5078
tp5079
Rp5080
I1421624026
sg2
(g3
g4
(S'95.222.28.30'
p5081
I8444
tp5082
tp5083
Rp5084
I1420832557
sg2
(g3
g4
(S'81.17.24.46'
p5085
I8444
tp5086
tp5087
Rp5088
I1420822711
sg2
(g3
g4
(S'91.240.112.10'
p5089
I51611
tp5090
tp5091
Rp5092
I1420737307
sg2
(g3
g4
(S'73.26.101.228'
p5093
I8444
tp5094
tp5095
Rp5096
I1420844658
sg2
(g3
g4
(S'46.115.180.146'
p5097
I8444
tp5098
tp5099
Rp5100
I1420840407
sg2
(g3
g4
(S'104.210.33.181'
p5101
I8444
tp5102
tp5103
Rp5104
I1420737984
sg2
(g3
g4
(S'85.93.218.204'
p5105
I8444
tp5106
tp5107
Rp5108
I1420822162
sg2
(g3
g4
(S'75.74.242.249'
p5109
I8444
tp5110
tp5111
Rp5112
I1420819204
sg2
(g3
g4
(S'93.131.106.132'
p5113
I8444
tp5114
tp5115
Rp5116
I1420823804
sg2
(g3
g4
(S'93.189.2.18'
p5117
I64630
tp5118
tp5119
Rp5120
I1421626332
sg2
(g3
g4
(S'94.242.246.23'
p5121
I22444
tp5122
tp5123
Rp5124
I1420820253
sg2
(g3
g4
(S'75.65.248.155'
p5125
I8444
tp5126
tp5127
Rp5128
I1421626218
sg2
(g3
g4
(S'46.233.0.70'
p5129
I8444
tp5130
tp5131
Rp5132
I1420831106
sg2
(g3
g4
(S'83.117.93.253'
p5133
I8444
tp5134
tp5135
Rp5136
I1421624662
sg2
(g3
g4
(S'95.72.57.16'
p5137
I8444
tp5138
tp5139
Rp5140
I1420727098
sg2
(g3
g4
(S'69.193.223.122'
p5141
I8444
tp5142
tp5143
Rp5144
I1420737629
sg2
(g3
g4
(S'66.108.149.106'
p5145
I8444
tp5146
tp5147
Rp5148
I1420824005
sg2
(g3
g4
(S'2601:b:ac80:a3:3561:425d:cedd:e1ad'
p5149
I8444
tp5150
tp5151
Rp5152
I1420839782
sg2
(g3
g4
(S'78.47.149.84'
p5153
I8444
tp5154
tp5155
Rp5156
I1420844301
sg2
(g3
g4
(S'108.68.120.223'
p5157
I8444
tp5158
tp5159
Rp5160
I1420765698
sg2
(g3
g4
(S'80.248.117.55'
p5161
I8444
tp5162
tp5163
Rp5164
I1421624173
sg2
(g3
g4
(S'2601:6:1e82:36a1:ed5a:7098:bbc6:b0f3'
p5165
I8444
tp5166
tp5167
Rp5168
I1421626537
sg2
(g3
g4
(S'86.10.184.53'
p5169
I8444
tp5170
tp5171
Rp5172
I1420827889
sg2
(g3
g4
(S'88.153.6.160'
p5173
I8444
tp5174
tp5175
Rp5176
I1421621588
sg2
(g3
g4
(S'2001:0:5ef5:79fb:c80:c956:a227:3669'
p5177
I8444
tp5178
tp5179
Rp5180
I1420826448
sg2
(g3
g4
(S'93.216.251.173'
p5181
I8444
tp5182
tp5183
Rp5184
I1420736000
sg2
(g3
g4
(S'37.187.225.122'
p5185
I9150
tp5186
tp5187
Rp5188
I1420828790
sg2
(g3
g4
(S'82.116.120.3'
p5189
I8444
tp5190
tp5191
Rp5192
I1420839732
sg2
(g3
g4
(S'217.239.8.18'
p5193
I8444
tp5194
tp5195
Rp5196
I1420824015
sg2
(g3
g4
(S'188.27.123.125'
p5197
I8444
tp5198
tp5199
Rp5200
I1420824014
sg2
(g3
g4
(S'2a02:8070:8680:2ea0:5583:b133:3131:424'
p5201
I8444
tp5202
tp5203
Rp5204
I1420833234
sg2
(g3
g4
(S'142.4.213.25'
p5205
I8444
tp5206
tp5207
Rp5208
I1420839592
sg2
(g3
g4
(S'84.183.178.203'
p5209
I8444
tp5210
tp5211
Rp5212
I1420838300
sg2
(g3
g4
(S'78.16.147.119'
p5213
I8444
tp5214
tp5215
Rp5216
I1421621763
sg2
(g3
g4
(S'78.12.144.12'
p5217
I8444
tp5218
tp5219
Rp5220
I1420820702
sg2
(g3
g4
(S'2001:0:c38c:c38c:149e:1c71:4f3d:e287'
p5221
I8444
tp5222
tp5223
Rp5224
I1421629956
sg2
(g3
g4
(S'86.149.204.216'
p5225
I8444
tp5226
tp5227
Rp5228
I1420834903
sg2
(g3
g4
(S'91.240.112.10'
p5229
I51188
tp5230
tp5231
Rp5232
I1420736379
sg2
(g3
g4
(S'93.189.2.18'
p5233
I61635
tp5234
tp5235
Rp5236
I1421630220
sg2
(g3
g4
(S'104.245.146.74'
p5237
I8444
tp5238
tp5239
Rp5240
I1420821802
sg2
(g3
g4
(S'91.240.112.10'
p5241
I54247
tp5242
tp5243
Rp5244
I1420816914
sg2
(g3
g4
(S'190.226.10.207'
p5245
I8444
tp5246
tp5247
Rp5248
I1421626089
sg2
(g3
g4
(S'91.12.212.235'
p5249
I8444
tp5250
tp5251
Rp5252
I1420838252
sg2
(g3
g4
(S'24.72.185.97'
p5253
I8444
tp5254
tp5255
Rp5256
I1420843594
sg2
(g3
g4
(S'217.51.155.213'
p5257
I8444
tp5258
tp5259
Rp5260
I1420841476
sg2
(g3
g4
(S'137.132.228.31'
p5261
I8444
tp5262
tp5263
Rp5264
I1421630184
sg2
(g3
g4
(S'95.130.15.97'
p5265
I8444
tp5266
tp5267
Rp5268
I1421622018
sg2
(g3
g4
(S'91.240.112.10'
p5269
I51689
tp5270
tp5271
Rp5272
I1420737787
sg2
(g3
g4
(S'78.26.151.50'
p5273
I8444
tp5274
tp5275
Rp5276
I1420836597
sg2
(g3
g4
(S'188.4.122.225'
p5277
I8444
tp5278
tp5279
Rp5280
I1420844234
sg2
(g3
g4
(S'82.136.73.204'
p5281
I8444
tp5282
tp5283
Rp5284
I1420839738
sg2
(g3
g4
(S'2a02:8071:2285:4b00:8ce2:505d:f2c0:a1f1'
p5285
I8444
tp5286
tp5287
Rp5288
I1420826422
sg2
(g3
g4
(S'79.40.187.133'
p5289
I8444
tp5290
tp5291
Rp5292
I1420834196
sg2
(g3
g4
(S'94.242.246.23'
p5293
I8080
tp5294
tp5295
Rp5296
I1421622846
sg2
(g3
g4
(S'213.165.69.149'
p5297
I8444
tp5298
tp5299
Rp5300
I1420727167
sg2
(g3
g4
(S'2.204.15.81'
p5301
I9150
tp5302
tp5303
Rp5304
I1420835984
sg2
(g3
g4
(S'91.240.112.10'
p5305
I51187
tp5306
tp5307
Rp5308
I1420736383
sg2
(g3
g4
(S'5.135.158.101'
p5309
I26763
tp5310
tp5311
Rp5312
I1420838729
sg2
(g3
g4
(S'98.117.65.253'
p5313
I8444
tp5314
tp5315
Rp5316
I1420823357
sg2
(g3
g4
(S'183.171.185.55'
p5317
I8444
tp5318
tp5319
Rp5320
I1420842819
sg2
(g3
g4
(S'84.164.75.66'
p5321
I8444
tp5322
tp5323
Rp5324
I1420844306
sg2
(g3
g4
(S'46.166.186.208'
p5325
I8444
tp5326
tp5327
Rp5328
I1420835642
sg2
(g3
g4
(S'5.198.4.136'
p5329
I8444
tp5330
tp5331
Rp5332
I1420843610
sg2
(g3
g4
(S'93.195.227.2'
p5333
I8444
tp5334
tp5335
Rp5336
I1420761779
sg2
(g3
g4
(S'217.254.47.27'
p5337
I8444
tp5338
tp5339
Rp5340
I1420823377
sg2
(g3
g4
(S'184.75.221.170'
p5341
I8444
tp5342
tp5343
Rp5344
I1420823982
sg2
(g3
g4
(S'178.162.209.134'
p5345
I8444
tp5346
tp5347
Rp5348
I1420842995
sg2
(g3
g4
(S'2001:0:9d38:90d7:1456:3f69:9775:1e36'
p5349
I8444
tp5350
tp5351
Rp5352
I1420830950
sg2
(g3
g4
(S'80.134.254.228'
p5353
I8444
tp5354
tp5355
Rp5356
I1420839125
sg2
(g3
g4
(S'95.130.15.251'
p5357
I9150
tp5358
tp5359
Rp5360
I1420826169
sg2
(g3
g4
(S'92.208.13.109'
p5361
I8444
tp5362
tp5363
Rp5364
I1420736766
sg2
(g3
g4
(S'79.247.182.232'
p5365
I8445
tp5366
tp5367
Rp5368
I1420824876
sg2
(g3
g4
(S'109.93.6.11'
p5369
I8444
tp5370
tp5371
Rp5372
I1420828573
sg2
(g3
g4
(S'54.175.39.47'
p5373
I8444
tp5374
tp5375
Rp5376
I1421626426
sg2
(g3
g4
(S'93.130.133.249'
p5377
I8444
tp5378
tp5379
Rp5380
I1420837850
sg2
(g3
g4
(S'104.245.145.34'
p5381
I8444
tp5382
tp5383
Rp5384
I1420842507
sg2
(g3
g4
(S'96.44.189.101'
p5385
I9150
tp5386
tp5387
Rp5388
I1420840446
sg2
(g3
g4
(S'42.119.106.76'
p5389
I8444
tp5390
tp5391
Rp5392
I1421620172
sg2
(g3
g4
(S'162.253.131.10'
p5393
I8444
tp5394
tp5395
Rp5396
I1420830058
sg2
(g3
g4
(S'71.42.73.110'
p5397
I8444
tp5398
tp5399
Rp5400
I1420835543
sg2
(g3
g4
(S'62.47.60.167'
p5401
I8444
tp5402
tp5403
Rp5404
I1421628995
sg2
(g3
g4
(S'2001:4ba0:cafe:1e3::1'
p5405
I8444
tp5406
tp5407
Rp5408
I1421628159
sg2
(g3
g4
(S'46.246.114.141'
p5409
I8444
tp5410
tp5411
Rp5412
I1420827213
sg2
(g3
g4
(S'77.6.163.139'
p5413
I8444
tp5414
tp5415
Rp5416
I1420736285
sg2
(g3
g4
(S'85.230.149.195'
p5417
I8444
tp5418
tp5419
Rp5420
I1420839452
sg2
(g3
g4
(S'217.12.204.104'
p5421
I8444
tp5422
tp5423
Rp5424
I1420824655
sg2
(g3
g4
(S'184.75.214.18'
p5425
I8444
tp5426
tp5427
Rp5428
I1420840148
sg2
(g3
g4
(S'212.7.220.6'
p5429
I8444
tp5430
tp5431
Rp5432
I1420835903
sg2
(g3
g4
(S'184.155.129.174'
p5433
I8444
tp5434
tp5435
Rp5436
I1421621500
sg2
(g3
g4
(S'81.67.196.236'
p5437
I8444
tp5438
tp5439
Rp5440
I1421620495
sg2
(g3
g4
(S'91.240.112.10'
p5441
I55497
tp5442
tp5443
Rp5444
I1420821855
sg2
(g3
g4
(S'91.240.112.10'
p5445
I64627
tp5446
tp5447
Rp5448
I1420727928
sg2
(g3
g4
(S'92.104.127.104'
p5449
I8444
tp5450
tp5451
Rp5452
I1420825031
sg2
(g3
g4
(S'82.192.95.184'
p5453
I14748
tp5454
tp5455
Rp5456
I1420766975
sg2
(g3
g4
(S'46.237.212.11'
p5457
I443
tp5458
tp5459
Rp5460
I1420727575
sg2
(g3
g4
(S'84.144.144.130'
p5461
I8444
tp5462
tp5463
Rp5464
I1420826951
sg2
(g3
g4
(S'118.98.221.69'
p5465
I22444
tp5466
tp5467
Rp5468
I1420826666
sg2
(g3
g4
(S'109.91.38.52'
p5469
I8444
tp5470
tp5471
Rp5472
I1420837093
sg2
(g3
g4
(S'109.163.234.7'
p5473
I8444
tp5474
tp5475
Rp5476
I1420766729
sg2
(g3
g4
(S'2001:0:5ef5:79fd:148c:2c86:aef4:46c'
p5477
I8444
tp5478
tp5479
Rp5480
I1420735216
sg2
(g3
g4
(S'2003:46:87b:dc01:c457:f31b:cf7d:da84'
p5481
I8445
tp5482
tp5483
Rp5484
I1420732705
sg2
(g3
g4
(S'151.100.44.245'
p5485
I8444
tp5486
tp5487
Rp5488
I1420725500
sg2
(g3
g4
(S'78.47.251.87'
p5489
I8444
tp5490
tp5491
Rp5492
I1421627501
sg2
(g3
g4
(S'41.44.73.127'
p5493
I8444
tp5494
tp5495
Rp5496
I1420734350
sg2
(g3
g4
(S'95.211.229.158'
p5497
I8445
tp5498
tp5499
Rp5500
I1420839084
sg2
(g3
g4
(S'86.151.53.55'
p5501
I8444
tp5502
tp5503
Rp5504
I1420839734
sg2
(g3
g4
(S'192.241.71.115'
p5505
I8444
tp5506
tp5507
Rp5508
I1420730757
sg2
(g3
g4
(S'184.75.223.210'
p5509
I8444
tp5510
tp5511
Rp5512
I1420766457
sg2
(g3
g4
(S'1.237.220.176'
p5513
I8444
tp5514
tp5515
Rp5516
I1420765720
sg2
(g3
g4
(S'23.239.9.147'
p5517
I8444
tp5518
tp5519
Rp5520
I1420831809
sg2
(g3
g4
(S'94.242.246.24'
p5521
I9150
tp5522
tp5523
Rp5524
I1420836565
sg2
(g3
g4
(S'115.187.242.85'
p5525
I8444
tp5526
tp5527
Rp5528
I1420839909
sg2
(g3
g4
(S'46.246.54.12'
p5529
I8444
tp5530
tp5531
Rp5532
I1420836589
sg2
(g3
g4
(S'192.99.150.152'
p5533
I49613
tp5534
tp5535
Rp5536
I1420825560
sg2
(g3
g4
(S'79.225.19.77'
p5537
I8444
tp5538
tp5539
Rp5540
I1420838380
sg2
(g3
g4
(S'95.140.89.20'
p5541
I8444
tp5542
tp5543
Rp5544
I1420837113
sg2
(g3
g4
(S'117.200.112.127'
p5545
I8444
tp5546
tp5547
Rp5548
I1420839568
sg2
(g3
g4
(S'202.156.90.174'
p5549
I8444
tp5550
tp5551
Rp5552
I1420819448
sg2
(g3
g4
(S'2003:58:a40a:f7ce:43f:d62c:795d:7e1d'
p5553
I8444
tp5554
tp5555
Rp5556
I1420736624
sg2
(g3
g4
(S'2.234.192.157'
p5557
I8444
tp5558
tp5559
Rp5560
I1420832433
sg2
(g3
g4
(S'94.242.246.23'
p5561
I9150
tp5562
tp5563
Rp5564
I1420826134
sg2
(g3
g4
(S'201.202.101.30'
p5565
I8444
tp5566
tp5567
Rp5568
I1420838585
sg2
(g3
g4
(S'37.48.77.227'
p5569
I23120
tp5570
tp5571
Rp5572
I1420734613
sg2
(g3
g4
(S'195.154.243.53'
p5573
I8444
tp5574
tp5575
Rp5576
I1420831640
sg2
(g3
g4
(S'71.183.220.95'
p5577
I8444
tp5578
tp5579
Rp5580
I1420836125
sg2
(g3
g4
(S'162.253.131.50'
p5581
I8444
tp5582
tp5583
Rp5584
I1420837770
sg2
(g3
g4
(S'81.246.145.199'
p5585
I8444
tp5586
tp5587
Rp5588
I1420732682
sg2
(g3
g4
(S'178.4.241.99'
p5589
I8444
tp5590
tp5591
Rp5592
I1420830818
sg2
(g3
g4
(S'84.185.74.226'
p5593
I8444
tp5594
tp5595
Rp5596
I1420734860
sg2
(g3
g4
(S'188.40.23.84'
p5597
I8444
tp5598
tp5599
Rp5600
I1420814699
sg2
(g3
g4
(S'176.8.157.192'
p5601
I8444
tp5602
tp5603
Rp5604
I1420828244
sg2
(g3
g4
(S'95.72.61.203'
p5605
I8444
tp5606
tp5607
Rp5608
I1420730228
sg2
(g3
g4
(S'192.99.150.152'
p5609
I65230
tp5610
tp5611
Rp5612
I1420825349
sg2
(g3
g4
(S'178.70.32.70'
p5613
I7444
tp5614
tp5615
Rp5616
I1420730518
sg2
(g3
g4
(S'89.133.137.77'
p5617
I9002
tp5618
tp5619
Rp5620
I1420841820
sg2
(g3
g4
(S'71.70.240.199'
p5621
I8444
tp5622
tp5623
Rp5624
I1420839531
sg2
(g3
g4
(S'184.75.221.162'
p5625
I8444
tp5626
tp5627
Rp5628
I1420837770
sg2
(g3
g4
(S'110.77.235.61'
p5629
I8444
tp5630
tp5631
Rp5632
I1420840992
sg2
(g3
g4
(S'201.110.225.101'
p5633
I8444
tp5634
tp5635
Rp5636
I1420827924
sg2
(g3
g4
(S'31.6.41.208'
p5637
I8444
tp5638
tp5639
Rp5640
I1420727381
sg2
(g3
g4
(S'37.221.192.69'
p5641
I8444
tp5642
tp5643
Rp5644
I1420826786
sg2
(g3
g4
(S'41.133.195.52'
p5645
I8444
tp5646
tp5647
Rp5648
I1420815325
sg2
(g3
g4
(S'24.6.53.48'
p5649
I8444
tp5650
tp5651
Rp5652
I1420734463
sg2
(g3
g4
(S'83.89.31.249'
p5653
I8444
tp5654
tp5655
Rp5656
I1420741473
sg2
(g3
g4
(S'2606:6000:66ca:db00:290b:d9cf:6001:634e'
p5657
I8444
tp5658
tp5659
Rp5660
I1420836846
sg2
(g3
g4
(S'24.224.68.29'
p5661
I8444
tp5662
tp5663
Rp5664
I1420819607
sg2
(g3
g4
(S'193.83.239.228'
p5665
I8444
tp5666
tp5667
Rp5668
I1420833387
sg2
(g3
g4
(S'90.21.167.50'
p5669
I8444
tp5670
tp5671
Rp5672
I1420827399
sg2
(g3
g4
(S'91.240.112.10'
p5673
I56746
tp5674
tp5675
Rp5676
I1420826141
sg2
(g3
g4
(S'98.155.0.41'
p5677
I8444
tp5678
tp5679
Rp5680
I1421629289
sg2
(g3
g4
(S'91.240.112.10'
p5681
I51621
tp5682
tp5683
Rp5684
I1420737346
sg2
(g3
g4
(S'78.57.142.187'
p5685
I8444
tp5686
tp5687
Rp5688
I1420835182
sg2
(g3
g4
(S'184.0.209.182'
p5689
I8444
tp5690
tp5691
Rp5692
I1420843707
sg2
(g3
g4
(S'68.228.237.222'
p5693
I8444
tp5694
tp5695
Rp5696
I1420762103
sg2
(g3
g4
(S'50.178.39.124'
p5697
I8444
tp5698
tp5699
Rp5700
I1421622928
sg2
(g3
g4
(S'54.77.143.74'
p5701
I9150
tp5702
tp5703
Rp5704
I1420843227
sg2
(g3
g4
(S'88.152.8.35'
p5705
I9150
tp5706
tp5707
Rp5708
I1420729407
sg2
(g3
g4
(S'2601:6:4c80:7b0:9caf:efd4:2cc7:6b0c'
p5709
I8444
tp5710
tp5711
Rp5712
I1420815231
sg2
(g3
g4
(S'38.73.140.31'
p5713
I8444
tp5714
tp5715
Rp5716
I1420829237
sg2
(g3
g4
(S'95.211.224.45'
p5717
I8444
tp5718
tp5719
Rp5720
I1420826979
sg2
(g3
g4
(S'91.240.112.10'
p5721
I56339
tp5722
tp5723
Rp5724
I1420824805
sg2
(g3
g4
(S'95.92.46.83'
p5725
I8444
tp5726
tp5727
Rp5728
I1421630872
sg2
(g3
g4
(S'185.53.163.6'
p5729
I8444
tp5730
tp5731
Rp5732
I1420824585
sg2
(g3
g4
(S'91.119.84.43'
p5733
I8444
tp5734
tp5735
Rp5736
I1420734099
sg2
(g3
g4
(S'92.39.21.212'
p5737
I8444
tp5738
tp5739
Rp5740
I1420736490
sg2
(g3
g4
(S'67.164.140.89'
p5741
I8444
tp5742
tp5743
Rp5744
I1420842743
sg2
(g3
g4
(S'128.90.92.105'
p5745
I8444
tp5746
tp5747
Rp5748
I1420765236
sg2
(g3
g4
(S'188.187.24.53'
p5749
I8444
tp5750
tp5751
Rp5752
I1420836592
sg2
(g3
g4
(S'62.212.89.116'
p5753
I9150
tp5754
tp5755
Rp5756
I1420825039
sg2
(g3
g4
(S'79.251.119.16'
p5757
I8444
tp5758
tp5759
Rp5760
I1421623729
sg2
(g3
g4
(S'90.209.22.197'
p5761
I8444
tp5762
tp5763
Rp5764
I1420822187
sg2
(g3
g4
(S'46.164.227.214'
p5765
I8444
tp5766
tp5767
Rp5768
I1420727436
sg2
(g3
g4
(S'62.210.170.27'
p5769
I8444
tp5770
tp5771
Rp5772
I1420828469
sg2
(g3
g4
(S'109.201.154.130'
p5773
I8444
tp5774
tp5775
Rp5776
I1420829004
sg2
(g3
g4
(S'5.135.85.23'
p5777
I8444
tp5778
tp5779
Rp5780
I1420824123
sg2
(g3
g4
(S'90.225.119.91'
p5781
I8444
tp5782
tp5783
Rp5784
I1420835139
sg2
(g3
g4
(S'87.176.155.218'
p5785
I8444
tp5786
tp5787
Rp5788
I1420839211
sg2
(g3
g4
(S'91.240.112.10'
p5789
I56201
tp5790
tp5791
Rp5792
I1420824594
sg2
(g3
g4
(S'37.215.51.227'
p5793
I8444
tp5794
tp5795
Rp5796
I1420762748
sg2
(g3
g4
(S'199.101.185.163'
p5797
I8444
tp5798
tp5799
Rp5800
I1420837093
sg2
(g3
g4
(S'162.219.178.122'
p5801
I8444
tp5802
tp5803
Rp5804
I1421626035
sg2
(g3
g4
(S'162.253.130.226'
p5805
I8444
tp5806
tp5807
Rp5808
I1420842431
sg2
(g3
g4
(S'162.253.131.170'
p5809
I8444
tp5810
tp5811
Rp5812
I1420835731
sg2
(g3
g4
(S'77.95.229.14'
p5813
I8444
tp5814
tp5815
Rp5816
I1420832344
sg2
(g3
g4
(S'2606:6000:66ca:db00:e866:7392:427d:bf7e'
p5817
I8444
tp5818
tp5819
Rp5820
I1420817915
sg2
(g3
g4
(S'96.47.226.20'
p5821
I9150
tp5822
tp5823
Rp5824
I1420840859
sg2
(g3
g4
(S'88.134.76.11'
p5825
I8444
tp5826
tp5827
Rp5828
I1420840402
sg2
(g3
g4
(S'212.21.66.6'
p5829
I8444
tp5830
tp5831
Rp5832
I1420826062
sg2
(g3
g4
(S'2a02:8108:1f80:1a24:186d:eea0:d320:e281'
p5833
I8444
tp5834
tp5835
Rp5836
I1420734789
sg2
(g3
g4
(S'197.158.231.213'
p5837
I8444
tp5838
tp5839
Rp5840
I1420822575
sg2
(g3
g4
(S'79.220.231.30'
p5841
I8444
tp5842
tp5843
Rp5844
I1420761471
sg2
(g3
g4
(S'84.159.195.237'
p5845
I8444
tp5846
tp5847
Rp5848
I1420840180
sg2
(g3
g4
(S'83.135.47.113'
p5849
I8444
tp5850
tp5851
Rp5852
I1420736643
sg2
(g3
g4
(S'37.187.225.122'
p5853
I8444
tp5854
tp5855
Rp5856
I1420839107
sg2
(g3
g4
(S'108.61.72.12'
p5857
I28444
tp5858
tp5859
Rp5860
I1420844093
sg2
(g3
g4
(S'190.232.144.231'
p5861
I8444
tp5862
tp5863
Rp5864
I1420815506
sg2
(g3
g4
(S'197.231.221.211'
p5865
I8444
tp5866
tp5867
Rp5868
I1421630871
sg2
(g3
g4
(S'46.21.99.29'
p5869
I8444
tp5870
tp5871
Rp5872
I1420756175
sg2
(g3
g4
(S'2001:0:5ef5:79fd:21:8fc:6121:2cae'
p5873
I8080
tp5874
tp5875
Rp5876
I1420766289
sg2
(g3
g4
(S'91.240.112.10'
p5877
I63000
tp5878
tp5879
Rp5880
I1420727777
sg2
(g3
g4
(S'95.90.231.239'
p5881
I8444
tp5882
tp5883
Rp5884
I1420759227
sg2
(g3
g4
(S'75.23.227.60'
p5885
I8444
tp5886
tp5887
Rp5888
I1420756138
sg2
(g3
g4
(S'188.168.204.135'
p5889
I8444
tp5890
tp5891
Rp5892
I1420844102
sg2
(g3
g4
(S'88.134.141.121'
p5893
I8444
tp5894
tp5895
Rp5896
I1421621350
sg2
(g3
g4
(S'87.99.38.110'
p5897
I8444
tp5898
tp5899
Rp5900
I1421624195
sg2
(g3
g4
(S'95.211.224.44'
p5901
I8444
tp5902
tp5903
Rp5904
I1420824176
sg2
(g3
g4
(S'176.61.55.14'
p5905
I8444
tp5906
tp5907
Rp5908
I1420843608
sg2
(g3
g4
(S'162.219.179.87'
p5909
I8444
tp5910
tp5911
Rp5912
I1420725833
sg2
(g3
g4
(S'86.120.112.238'
p5913
I8444
tp5914
tp5915
Rp5916
I1420815380
sg2
(g3
g4
(S'197.205.138.137'
p5917
I8444
tp5918
tp5919
Rp5920
I1420736367
sg2
(g3
g4
(S'91.7.104.94'
p5921
I8444
tp5922
tp5923
Rp5924
I1420817539
sg2
(g3
g4
(S'124.161.43.130'
p5925
I8444
tp5926
tp5927
Rp5928
I1420735928
sg2
(g3
g4
(S'79.114.79.158'
p5929
I8444
tp5930
tp5931
Rp5932
I1420813726
sg2
(g3
g4
(S'137.132.43.206'
p5933
I8444
tp5934
tp5935
Rp5936
I1421630291
sg2
(g3
g4
(S'37.187.239.191'
p5937
I9002
tp5938
tp5939
Rp5940
I1420727391
sg2
(g3
g4
(S'193.37.152.241'
p5941
I8444
tp5942
tp5943
Rp5944
I1420841834
sg2
(g3
g4
(S'38.121.165.30'
p5945
I8444
tp5946
tp5947
Rp5948
I1420734637
sg2
(g3
g4
(S'94.75.157.216'
p5949
I8444
tp5950
tp5951
Rp5952
I1420730726
sg2
(g3
g4
(S'188.79.153.223'
p5953
I8444
tp5954
tp5955
Rp5956
I1420830036
sg2
(g3
g4
(S'194.118.134.193'
p5957
I8444
tp5958
tp5959
Rp5960
I1420819539
sg2
(g3
g4
(S'5.79.68.161'
p5961
I8444
tp5962
tp5963
Rp5964
I1420831277
sg2
(g3
g4
(S'108.65.62.147'
p5965
I8444
tp5966
tp5967
Rp5968
I1421624181
sg2
(g3
g4
(S'183.171.185.74'
p5969
I8444
tp5970
tp5971
Rp5972
I1420818597
sg2
(g3
g4
(S'184.75.212.66'
p5973
I8444
tp5974
tp5975
Rp5976
I1420818389
sg2
(g3
g4
(S'184.174.135.248'
p5977
I8444
tp5978
tp5979
Rp5980
I1420833108
sg2
(g3
g4
(S'104.33.6.94'
p5981
I8444
tp5982
tp5983
Rp5984
I1421629788
sg2
(g3
g4
(S'184.75.221.218'
p5985
I8444
tp5986
tp5987
Rp5988
I1420843177
sg2
(g3
g4
(S'104.245.145.98'
p5989
I8444
tp5990
tp5991
Rp5992
I1420842493
sg2
(g3
g4
(S'91.240.112.10'
p5993
I51235
tp5994
tp5995
Rp5996
I1420736403
sg2
(g3
g4
(S'81.23.116.186'
p5997
I8444
tp5998
tp5999
Rp6000
I1421625749
sg2
(g3
g4
(S'5.135.158.101'
p6001
I9006
tp6002
tp6003
Rp6004
I1420815746
sg2
(g3
g4
(S'73.165.226.254'
p6005
I8444
tp6006
tp6007
Rp6008
I1420842569
sg2
(g3
g4
(S'2001:1458:202:ff::101:eae6'
p6009
I8444
tp6010
tp6011
Rp6012
I1420728116
sg2
(g3
g4
(S'91.240.112.10'
p6013
I56607
tp6014
tp6015
Rp6016
I1420825743
sg2
(g3
g4
(S'190.92.11.97'
p6017
I8444
tp6018
tp6019
Rp6020
I1420734879
sg2
(g3
g4
(S'217.249.32.38'
p6021
I8444
tp6022
tp6023
Rp6024
I1420737738
sg2
(g3
g4
(S'82.211.223.3'
p6025
I443
tp6026
tp6027
Rp6028
I1420838228
sg2
(g3
g4
(S'104.245.146.38'
p6029
I8446
tp6030
tp6031
Rp6032
I1420831485
sg2
(g3
g4
(S'92.194.124.34'
p6033
I8444
tp6034
tp6035
Rp6036
I1420835461
sg2
(g3
g4
(S'93.189.2.18'
p6037
I60326
tp6038
tp6039
Rp6040
I1421629847
sg2
(g3
g4
(S'82.25.141.59'
p6041
I8444
tp6042
tp6043
Rp6044
I1420836564
sg2
(g3
g4
(S'174.20.182.168'
p6045
I8444
tp6046
tp6047
Rp6048
I1420838486
sg2
(g3
g4
(S'5.135.158.101'
p6049
I443
tp6050
tp6051
Rp6052
I1420838729
sg2
(g3
g4
(S'84.19.178.7'
p6053
I8444
tp6054
tp6055
Rp6056
I1420839115
sg2
(g3
g4
(S'104.245.145.226'
p6057
I8444
tp6058
tp6059
Rp6060
I1420766427
sg2
(g3
g4
(S'106.248.183.115'
p6061
I8444
tp6062
tp6063
Rp6064
I1420730535
sg2
(g3
g4
(S'162.219.176.114'
p6065
I8444
tp6066
tp6067
Rp6068
I1420840153
sg2
(g3
g4
(S'94.217.253.49'
p6069
I8444
tp6070
tp6071
Rp6072
I1420834311
sg2
(g3
g4
(S'84.24.35.65'
p6073
I8444
tp6074
tp6075
Rp6076
I1420843437
sg2
(g3
g4
(S'37.24.147.226'
p6077
I8444
tp6078
tp6079
Rp6080
I1420840525
sg2
(g3
g4
(S'87.248.15.90'
p6081
I8444
tp6082
tp6083
Rp6084
I1420838055
sg2
(g3
g4
(S'2001:0:9d38:90d7:2838:1cf7:433f:40b6'
p6085
I8444
tp6086
tp6087
Rp6088
I1420732306
sg2
(g3
g4
(S'87.183.236.1'
p6089
I8444
tp6090
tp6091
Rp6092
I1420818710
sg2
(g3
g4
(S'78.41.115.145'
p6093
I8444
tp6094
tp6095
Rp6096
I1420834456
sg2
(g3
g4
(S'128.52.128.105'
p6097
I8444
tp6098
tp6099
Rp6100
I1420844028
sg2
(g3
g4
(S'2003:81:6d52:bf00:c898:4975:8411:1744'
p6101
I8444
tp6102
tp6103
Rp6104
I1420734759
sg2
(g3
g4
(S'106.39.255.148'
p6105
I8444
tp6106
tp6107
Rp6108
I1420839822
sg2
(g3
g4
(S'79.233.60.189'
p6109
I8444
tp6110
tp6111
Rp6112
I1420835350
sg2
(g3
g4
(S'91.121.159.196'
p6113
I8444
tp6114
tp6115
Rp6116
I1420835591
sg2
(g3
g4
(S'185.4.158.115'
p6117
I8444
tp6118
tp6119
Rp6120
I1420726893
sg2
(g3
g4
(S'77.10.189.176'
p6121
I8444
tp6122
tp6123
Rp6124
I1420763701
sg2
(g3
g4
(S'2602:306:cd84:2d20:fc28:e1de:3eb8:d551'
p6125
I8444
tp6126
tp6127
Rp6128
I1421624774
sg2
(g3
g4
(S'77.241.39.19'
p6129
I8444
tp6130
tp6131
Rp6132
I1420839126
sg2
(g3
g4
(S'75.139.196.222'
p6133
I8444
tp6134
tp6135
Rp6136
I1420839096
sg2
(g3
g4
(S'184.75.212.218'
p6137
I8444
tp6138
tp6139
Rp6140
I1420831579
sg2
(g3
g4
(S'184.75.212.178'
p6141
I8444
tp6142
tp6143
Rp6144
I1420819202
sg2
(g3
g4
(S'93.221.230.31'
p6145
I8444
tp6146
tp6147
Rp6148
I1420816141
sg2
(g3
g4
(S'68.224.107.44'
p6149
I8444
tp6150
tp6151
Rp6152
I1420842747
sg2
(g3
g4
(S'83.25.64.195'
p6153
I8444
tp6154
tp6155
Rp6156
I1420732293
sg2
(g3
g4
(S'82.211.223.3'
p6157
I8444
tp6158
tp6159
Rp6160
I1420837198
sg2
(g3
g4
(S'203.217.45.154'
p6161
I8444
tp6162
tp6163
Rp6164
I1420841208
sg2
(g3
g4
(S'70.36.177.246'
p6165
I8444
tp6166
tp6167
Rp6168
I1421630160
sg2
(g3
g4
(S'2a02:8109:92c0:11ee:f928:6ab5:1dd2:3f'
p6169
I23120
tp6170
tp6171
Rp6172
I1420733451
sg2
(g3
g4
(S'117.79.232.176'
p6173
I8444
tp6174
tp6175
Rp6176
I1420836607
sg2
(g3
g4
(S'80.2.87.65'
p6177
I8444
tp6178
tp6179
Rp6180
I1420841520
sg2
(g3
g4
(S'78.43.42.27'
p6181
I8444
tp6182
tp6183
Rp6184
I1420828966
sg2
(g3
g4
(S'95.67.255.228'
p6185
I8444
tp6186
tp6187
Rp6188
I1420840834
sg2
(g3
g4
(S'184.174.133.186'
p6189
I28355
tp6190
tp6191
Rp6192
I1421628145
sg2
(g3
g4
(S'2a02:908:eb72:2c80:c1b4:c402:b261:bf7b'
p6193
I8444
tp6194
tp6195
Rp6196
I1420818756
sg2
(g3
g4
(S'83.29.181.131'
p6197
I8444
tp6198
tp6199
Rp6200
I1420841969
sg2
(g3
g4
(S'2605:e000:3506:d900:4d11:a39a:b8e2:6798'
p6201
I8444
tp6202
tp6203
Rp6204
I1420828370
sg2
(g3
g4
(S'193.163.220.143'
p6205
I8444
tp6206
tp6207
Rp6208
I1420761427
sg2
(g3
g4
(S'93.189.2.18'
p6209
I50557
tp6210
tp6211
Rp6212
I1421622394
sg2
(g3
g4
(S'178.215.105.125'
p6213
I4888
tp6214
tp6215
Rp6216
I1420725758
sg2
(g3
g4
(S'77.51.89.235'
p6217
I8444
tp6218
tp6219
Rp6220
I1420736415
sg2
(g3
g4
(S'79.144.0.240'
p6221
I8444
tp6222
tp6223
Rp6224
I1420843354
sg2
(g3
g4
(S'93.189.2.18'
p6225
I60768
tp6226
tp6227
Rp6228
I1421620601
sg2
(g3
g4
(S'176.126.252.12'
p6229
I9002
tp6230
tp6231
Rp6232
I1420820684
sg2
(g3
g4
(S'54.77.9.135'
p6233
I8444
tp6234
tp6235
Rp6236
I1420818598
sg2
(g3
g4
(S'80.138.33.1'
p6237
I8444
tp6238
tp6239
Rp6240
I1420824052
sg2
(g3
g4
(S'162.253.130.114'
p6241
I8444
tp6242
tp6243
Rp6244
I1420842436
sg2
(g3
g4
(S'81.57.138.180'
p6245
I8444
tp6246
tp6247
Rp6248
I1420837200
sg2
(g3
g4
(S'91.240.112.10'
p6249
I50856
tp6250
tp6251
Rp6252
I1420734873
sg2
(g3
g4
(S'86.106.49.143'
p6253
I8444
tp6254
tp6255
Rp6256
I1420840468
sg2
(g3
g4
(S'81.157.48.107'
p6257
I1195
tp6258
tp6259
Rp6260
I1420728914
sg2
(g3
g4
(S'83.25.52.121'
p6261
I8444
tp6262
tp6263
Rp6264
I1420842335
sg2
(g3
g4
(S'85.228.205.14'
p6265
I8444
tp6266
tp6267
Rp6268
I1420832120
sg2
(g3
g4
(S'94.242.246.24'
p6269
I8444
tp6270
tp6271
Rp6272
I1420837786
sg2
(g3
g4
(S'73.166.103.38'
p6273
I8444
tp6274
tp6275
Rp6276
I1421626469
sg2
(g3
g4
(S'77.95.229.11'
p6277
I8123
tp6278
tp6279
Rp6280
I1420737880
sg2
(g3
g4
(S'95.73.229.149'
p6281
I8445
tp6282
tp6283
Rp6284
I1420829182
sg2
(g3
g4
(S'2001:0:9d38:90d7:1000:1e6f:b3a0:52b1'
p6285
I8444
tp6286
tp6287
Rp6288
I1420828395
sg2
(g3
g4
(S'216.218.134.12'
p6289
I8444
tp6290
tp6291
Rp6292
I1420760117
sg2
(g3
g4
(S'198.50.151.220'
p6293
I65535
tp6294
tp6295
Rp6296
I1420844124
sg2
(g3
g4
(S'50.40.215.116'
p6297
I8444
tp6298
tp6299
Rp6300
I1420727174
sg2
(g3
g4
(S'37.104.62.187'
p6301
I8444
tp6302
tp6303
Rp6304
I1420826774
sg2
(g3
g4
(S'79.124.11.68'
p6305
I7771
tp6306
tp6307
Rp6308
I1420840406
sg2
(g3
g4
(S'71.241.221.64'
p6309
I8444
tp6310
tp6311
Rp6312
I1420839543
sg2
(g3
g4
(S'89.217.32.174'
p6313
I8444
tp6314
tp6315
Rp6316
I1420756508
sg2
(g3
g4
(S'2001:a60:1229:5c01:bced:41b3:d9e9:8b4f'
p6317
I8444
tp6318
tp6319
Rp6320
I1420757796
sg2
(g3
g4
(S'71.211.6.84'
p6321
I8444
tp6322
tp6323
Rp6324
I1420763961
sg2
(g3
g4
(S'46.5.18.115'
p6325
I8444
tp6326
tp6327
Rp6328
I1420828563
sg2
(g3
g4
(S'75.68.195.245'
p6329
I8444
tp6330
tp6331
Rp6332
I1421628494
sg2
(g3
g4
(S'190.15.80.59'
p6333
I8444
tp6334
tp6335
Rp6336
I1420839119
sg2
(g3
g4
(S'2001:0:53aa:64c:1424:4bde:a0ad:362f'
p6337
I8457
tp6338
tp6339
Rp6340
I1420837790
sg2
(g3
g4
(S'84.118.130.205'
p6341
I8444
tp6342
tp6343
Rp6344
I1420736937
sg2
(g3
g4
(S'78.52.160.249'
p6345
I6666
tp6346
tp6347
Rp6348
I1420815582
sg2
(g3
g4
(S'77.247.181.163'
p6349
I9003
tp6350
tp6351
Rp6352
I1420726391
sg2
(g3
g4
(S'31.31.76.76'
p6353
I8444
tp6354
tp6355
Rp6356
I1420757993
sg2
(g3
g4
(S'37.247.82.208'
p6357
I8444
tp6358
tp6359
Rp6360
I1420840869
sg2
(g3
g4
(S'109.190.91.201'
p6361
I8444
tp6362
tp6363
Rp6364
I1420815845
sg2
(g3
g4
(S'78.55.27.172'
p6365
I8444
tp6366
tp6367
Rp6368
I1420726644
sg2
(g3
g4
(S'46.127.190.104'
p6369
I8444
tp6370
tp6371
Rp6372
I1420840800
sg2
(g3
g4
(S'46.166.186.246'
p6373
I8444
tp6374
tp6375
Rp6376
I1420827261
sg2
(g3
g4
(S'142.162.18.253'
p6377
I8444
tp6378
tp6379
Rp6380
I1420843723
sg2
(g3
g4
(S'79.141.161.18'
p6381
I8444
tp6382
tp6383
Rp6384
I1420763639
sg2
(g3
g4
(S'87.223.65.29'
p6385
I8444
tp6386
tp6387
Rp6388
I1421625903
sg2
(g3
g4
(S'2001:0:5ef5:79fd:30e2:3f6:a39b:b90a'
p6389
I8444
tp6390
tp6391
Rp6392
I1420814328
sg2
(g3
g4
(S'91.192.71.177'
p6393
I6112
tp6394
tp6395
Rp6396
I1421621168
sg2
(g3
g4
(S'77.96.70.239'
p6397
I8444
tp6398
tp6399
Rp6400
I1420757053
sg2
(g3
g4
(S'37.157.195.83'
p6401
I8444
tp6402
tp6403
Rp6404
I1420843444
sg2
(g3
g4
(S'2a01:4f8:d12:1283::2'
p6405
I8444
tp6406
tp6407
Rp6408
I1421624953
sg2
(g3
g4
(S'2001:0:9d38:6abd:283a:238b:a96b:a6b5'
p6409
I8444
tp6410
tp6411
Rp6412
I1420836596
sg2
(g3
g4
(S'109.63.238.109'
p6413
I8444
tp6414
tp6415
Rp6416
I1420822412
sg2
(g3
g4
(S'68.42.42.120'
p6417
I8444
tp6418
tp6419
Rp6420
I1420841322
sg2
(g3
g4
(S'46.115.130.182'
p6421
I8444
tp6422
tp6423
Rp6424
I1420815300
sg2
(g3
g4
(S'2001:0:9d38:6ab8:3472:1433:cd53:62d6'
p6425
I8444
tp6426
tp6427
Rp6428
I1420837794
sg2
(g3
g4
(S'104.245.146.158'
p6429
I8444
tp6430
tp6431
Rp6432
I1420825795
sg2
(g3
g4
(S'95.170.86.150'
p6433
I8444
tp6434
tp6435
Rp6436
I1421624669
sg2
(g3
g4
(S'41.168.11.6'
p6437
I8444
tp6438
tp6439
Rp6440
I1420734740
sg2
(g3
g4
(S'78.108.63.44'
p6441
I8444
tp6442
tp6443
Rp6444
I1420725451
sg2
(g3
g4
(S'62.210.74.143'
p6445
I8445
tp6446
tp6447
Rp6448
I1420837313
sg2
(g3
g4
(S'79.218.167.83'
p6449
I8444
tp6450
tp6451
Rp6452
I1420762336
sg2
(g3
g4
(S'91.240.112.10'
p6453
I54785
tp6454
tp6455
Rp6456
I1420819908
sg2
(g3
g4
(S'184.75.211.169'
p6457
I8444
tp6458
tp6459
Rp6460
I1420832731
sg2
(g3
g4
(S'184.75.211.223'
p6461
I8444
tp6462
tp6463
Rp6464
I1420840729
sg2
(g3
g4
(S'107.188.136.206'
p6465
I8444
tp6466
tp6467
Rp6468
I1420819464
sg2
(g3
g4
(S'80.138.38.76'
p6469
I8444
tp6470
tp6471
Rp6472
I1420736404
sg2
(g3
g4
(S'201.177.9.231'
p6473
I8444
tp6474
tp6475
Rp6476
I1421624493
sg2
(g3
g4
(S'128.39.149.158'
p6477
I8444
tp6478
tp6479
Rp6480
I1420734516
sg2
(g3
g4
(S'71.103.177.168'
p6481
I8444
tp6482
tp6483
Rp6484
I1421629771
sg2
(g3
g4
(S'114.134.187.63'
p6485
I8444
tp6486
tp6487
Rp6488
I1420842825
sg2
(g3
g4
(S'118.108.54.36'
p6489
I8444
tp6490
tp6491
Rp6492
I1421621618
sg2
(g3
g4
(S'93.135.76.165'
p6493
I8444
tp6494
tp6495
Rp6496
I1420758611
sg2
(g3
g4
(S'114.111.167.120'
p6497
I8444
tp6498
tp6499
Rp6500
I1420839704
sg2
(g3
g4
(S'162.253.130.98'
p6501
I8444
tp6502
tp6503
Rp6504
I1420726077
sg2
(g3
g4
(S'69.253.11.32'
p6505
I8444
tp6506
tp6507
Rp6508
I1420841988
sg2
(g3
g4
(S'158.255.213.81'
p6509
I8444
tp6510
tp6511
Rp6512
I1420758470
sg2
(g3
g4
(S'92.100.108.44'
p6513
I8444
tp6514
tp6515
Rp6516
I1421629744
sg2
(g3
g4
(S'183.99.162.42'
p6517
I8444
tp6518
tp6519
Rp6520
I1420841486
sg2
(g3
g4
(S'184.75.214.186'
p6521
I8444
tp6522
tp6523
Rp6524
I1420843185
sg2
(g3
g4
(S'216.246.132.52'
p6525
I8444
tp6526
tp6527
Rp6528
I1421626264
sg2
(g3
g4
(S'2a02:8071:9193:c900:41b9:bfb:40cd:2e01'
p6529
I8444
tp6530
tp6531
Rp6532
I1420734526
sg2
(g3
g4
(S'77.247.181.162'
p6533
I8445
tp6534
tp6535
Rp6536
I1421622930
sg2
(g3
g4
(S'37.187.129.166'
p6537
I9150
tp6538
tp6539
Rp6540
I1420832831
sg2
(g3
g4
(S'2a02:810d:8340:1bc0:55a0:ce1a:3e42:9c0f'
p6541
I8444
tp6542
tp6543
Rp6544
I1420736242
sg2
(g3
g4
(S'31.170.186.69'
p6545
I8444
tp6546
tp6547
Rp6548
I1420840721
sg2
(g3
g4
(S'185.8.238.219'
p6549
I8444
tp6550
tp6551
Rp6552
I1420733708
sg2
(g3
g4
(S'2a02:214b:8001:4000:b52f:8987:6a99:7762'
p6553
I8444
tp6554
tp6555
Rp6556
I1420733831
sg2
(g3
g4
(S'81.89.0.198'
p6557
I8444
tp6558
tp6559
Rp6560
I1420727469
sg2
(g3
g4
(S'46.165.208.105'
p6561
I13082
tp6562
tp6563
Rp6564
I1420837492
sg2
(g3
g4
(S'186.93.153.232'
p6565
I8444
tp6566
tp6567
Rp6568
I1420735761
sg2
(g3
g4
(S'162.219.178.50'
p6569
I8444
tp6570
tp6571
Rp6572
I1420840150
sg2
(g3
g4
(S'129.132.106.185'
p6573
I8444
tp6574
tp6575
Rp6576
I1420840751
sg2
(g3
g4
(S'94.12.68.242'
p6577
I8444
tp6578
tp6579
Rp6580
I1420736652
sg2
(g3
g4
(S'123.108.224.70'
p6581
I8444
tp6582
tp6583
Rp6584
I1420824765
sg2
(g3
g4
(S'188.104.239.119'
p6585
I8444
tp6586
tp6587
Rp6588
I1420836081
sg2
(g3
g4
(S'88.77.50.131'
p6589
I8444
tp6590
tp6591
Rp6592
I1420844187
sg2
(g3
g4
(S'109.173.30.254'
p6593
I8444
tp6594
tp6595
Rp6596
I1421629239
sg2
(g3
g4
(S'185.5.153.234'
p6597
I8444
tp6598
tp6599
Rp6600
I1420839604
sg2
(g3
g4
(S'2001:8b0:1c1:616a:c51c:8164:9073:87b'
p6601
I8444
tp6602
tp6603
Rp6604
I1420839547
sg2
(g3
g4
(S'109.201.152.238'
p6605
I8444
tp6606
tp6607
Rp6608
I1421624216
sg2
(g3
g4
(S'98.237.149.230'
p6609
I8444
tp6610
tp6611
Rp6612
I1420818420
sg2
(g3
g4
(S'204.8.156.142'
p6613
I8444
tp6614
tp6615
Rp6616
I1421624676
sg2
(g3
g4
(S'178.27.208.19'
p6617
I8444
tp6618
tp6619
Rp6620
I1420844594
sg2
(g3
g4
(S'78.45.208.163'
p6621
I8444
tp6622
tp6623
Rp6624
I1421624183
sg2
(g3
g4
(S'137.63.71.86'
p6625
I8444
tp6626
tp6627
Rp6628
I1420736663
sg2
(g3
g4
(S'188.176.28.52'
p6629
I8444
tp6630
tp6631
Rp6632
I1420831320
sg2
(g3
g4
(S'89.242.91.142'
p6633
I8444
tp6634
tp6635
Rp6636
I1420830601
sg2
(g3
g4
(S'75.65.248.155'
p6637
I8443
tp6638
tp6639
Rp6640
I1420843956
sg2
(g3
g4
(S'37.44.79.36'
p6641
I8444
tp6642
tp6643
Rp6644
I1420818073
sg2
(g3
g4
(S'92.227.204.148'
p6645
I8444
tp6646
tp6647
Rp6648
I1420730474
sg2
(g3
g4
(S'78.87.27.49'
p6649
I8444
tp6650
tp6651
Rp6652
I1420823896
sg2
(g3
g4
(S'75.175.0.196'
p6653
I8444
tp6654
tp6655
Rp6656
I1421621591
sg2
(g3
g4
(S'184.75.214.26'
p6657
I8444
tp6658
tp6659
Rp6660
I1420837764
sg2
(g3
g4
(S'24.160.52.112'
p6661
I8444
tp6662
tp6663
Rp6664
I1420760597
sg2
(g3
g4
(S'68.147.245.135'
p6665
I8444
tp6666
tp6667
Rp6668
I1420839129
sg2
(g3
g4
(S'207.119.116.70'
p6669
I8444
tp6670
tp6671
Rp6672
I1420761345
sg2
(g3
g4
(S'84.148.8.64'
p6673
I8444
tp6674
tp6675
Rp6676
I1420814968
sg2
(g3
g4
(S'94.223.139.60'
p6677
I8444
tp6678
tp6679
Rp6680
I1420838652
sg2
(g3
g4
(S'109.160.136.36'
p6681
I8444
tp6682
tp6683
Rp6684
I1421624752
sg2
(g3
g4
(S'110.77.154.140'
p6685
I8444
tp6686
tp6687
Rp6688
I1420823884
sg2
(g3
g4
(S'195.46.185.37'
p6689
I9150
tp6690
tp6691
Rp6692
I1420825038
sg2
(g3
g4
(S'209.159.138.19'
p6693
I9150
tp6694
tp6695
Rp6696
I1420843193
sg2
(g3
g4
(S'95.222.43.96'
p6697
I8444
tp6698
tp6699
Rp6700
I1420760083
sg2
(g3
g4
(S'162.219.176.42'
p6701
I8444
tp6702
tp6703
Rp6704
I1420824085
sg2
(g3
g4
(S'78.30.92.46'
p6705
I8444
tp6706
tp6707
Rp6708
I1420825046
sg2
(g3
g4
(S'92.211.8.125'
p6709
I8444
tp6710
tp6711
Rp6712
I1420730167
sg2
(g3
g4
(S'89.207.133.55'
p6713
I8444
tp6714
tp6715
Rp6716
I1420837739
sg2
(g3
g4
(S'111.204.253.175'
p6717
I8444
tp6718
tp6719
Rp6720
I1420760483
sg2
(g3
g4
(S'80.164.74.143'
p6721
I8444
tp6722
tp6723
Rp6724
I1420736445
sg2
(g3
g4
(S'188.138.39.6'
p6725
I8444
tp6726
tp6727
Rp6728
I1420843179
sg2
(g3
g4
(S'192.121.170.162'
p6729
I8444
tp6730
tp6731
Rp6732
I1421631055
sg2
(g3
g4
(S'192.99.150.152'
p6733
I59991
tp6734
tp6735
Rp6736
I1420823090
sg2
(g3
g4
(S'2601:0:6480:4d8:24a8:3d9a:95ff:d781'
p6737
I8444
tp6738
tp6739
Rp6740
I1420842272
sg2
(g3
g4
(S'2001:0:53aa:64c:3:2d4b:438d:f9c9'
p6741
I8444
tp6742
tp6743
Rp6744
I1420728457
sg2
(g3
g4
(S'184.75.213.194'
p6745
I8444
tp6746
tp6747
Rp6748
I1420842462
sg2
(g3
g4
(S'91.240.112.10'
p6749
I50827
tp6750
tp6751
Rp6752
I1420734865
sg2
(g3
g4
(S'121.99.21.244'
p6753
I8444
tp6754
tp6755
Rp6756
I1421622847
sg2
(g3
g4
(S'217.232.14.27'
p6757
I8444
tp6758
tp6759
Rp6760
I1421627799
sg2
(g3
g4
(S'83.25.52.101'
p6761
I8444
tp6762
tp6763
Rp6764
I1420844426
sg2
(g3
g4
(S'71.177.239.172'
p6765
I8444
tp6766
tp6767
Rp6768
I1420724771
sg2
(g3
g4
(S'93.103.89.138'
p6769
I8444
tp6770
tp6771
Rp6772
I1420757394
sg2
(g3
g4
(S'212.50.31.142'
p6773
I8444
tp6774
tp6775
Rp6776
I1420837908
sg2
(g3
g4
(S'104.245.145.130'
p6777
I8446
tp6778
tp6779
Rp6780
I1420736371
sg2
(g3
g4
(S'110.66.126.58'
p6781
I8444
tp6782
tp6783
Rp6784
I1420817552
sg2
(g3
g4
(S'66.183.208.220'
p6785
I8444
tp6786
tp6787
Rp6788
I1420839500
sg2
(g3
g4
(S'54.77.162.125'
p6789
I8080
tp6790
tp6791
Rp6792
I1420762009
sg2
(g3
g4
(S'88.160.249.176'
p6793
I8444
tp6794
tp6795
Rp6796
I1420825276
sg2
(g3
g4
(S'188.138.39.27'
p6797
I8444
tp6798
tp6799
Rp6800
I1420842879
sg2
(g3
g4
(S'2002:ba5f:60da::ba5f:60da'
p6801
I8444
tp6802
tp6803
Rp6804
I1420840624
sg2
(g3
g4
(S'77.9.187.146'
p6805
I8444
tp6806
tp6807
Rp6808
I1420756540
sg2
(g3
g4
(S'213.100.86.92'
p6809
I8444
tp6810
tp6811
Rp6812
I1420825808
sg2
(g3
g4
(S'197.118.200.222'
p6813
I8444
tp6814
tp6815
Rp6816
I1420731036
sg2
(g3
g4
(S'92.81.51.191'
p6817
I8444
tp6818
tp6819
Rp6820
I1420731361
sg2
(g3
g4
(S'173.66.216.131'
p6821
I8444
tp6822
tp6823
Rp6824
I1420839731
sg2
(g3
g4
(S'2001:0:9d38:90d7:2cdc:b3a:4d33:466f'
p6825
I8444
tp6826
tp6827
Rp6828
I1420725804
sg2
(g3
g4
(S'95.142.232.86'
p6829
I8444
tp6830
tp6831
Rp6832
I1420826073
sg2
(g3
g4
(S'2602:30a:2c77:d210:4415:6457:6c5f:46fc'
p6833
I8444
tp6834
tp6835
Rp6836
I1420826678
sg2
(g3
g4
(S'84.92.103.119'
p6837
I8444
tp6838
tp6839
Rp6840
I1420840402
sg2
(g3
g4
(S'176.127.154.101'
p6841
I8444
tp6842
tp6843
Rp6844
I1421622820
sg2
(g3
g4
(S'71.82.55.8'
p6845
I8444
tp6846
tp6847
Rp6848
I1420837845
sg2
(g3
g4
(S'37.59.67.101'
p6849
I8444
tp6850
tp6851
Rp6852
I1420834296
sg2
(g3
g4
(S'2001:0:9d38:90d7:2c90:705:a334:b17e'
p6853
I8080
tp6854
tp6855
Rp6856
I1420836354
sg2
(g3
g4
(S'37.187.51.210'
p6857
I8444
tp6858
tp6859
Rp6860
I1420839067
sg2
(g3
g4
(S'185.17.204.182'
p6861
I8444
tp6862
tp6863
Rp6864
I1420730561
sg2
(g3
g4
(S'210.188.36.5'
p6865
I8444
tp6866
tp6867
Rp6868
I1421629873
sg2
(g3
g4
(S'93.174.93.63'
p6869
I8444
tp6870
tp6871
Rp6872
I1421622113
sg2
(g3
g4
(S'123.243.48.128'
p6873
I8444
tp6874
tp6875
Rp6876
I1420820327
sg2
(g3
g4
(S'93.189.2.18'
p6877
I55235
tp6878
tp6879
Rp6880
I1421623645
sg2
(g3
g4
(S'112.133.219.34'
p6881
I8444
tp6882
tp6883
Rp6884
I1420836054
sg2
(g3
g4
(S'86.63.161.61'
p6885
I8444
tp6886
tp6887
Rp6888
I1421628366
sg2
(g3
g4
(S'80.255.3.77'
p6889
I8444
tp6890
tp6891
Rp6892
I1420843600
sg2
(g3
g4
(S'37.139.31.129'
p6893
I8444
tp6894
tp6895
Rp6896
I1421630090
sg2
(g3
g4
(S'144.76.78.214'
p6897
I8444
tp6898
tp6899
Rp6900
I1420842849
sg2
(g3
g4
(S'81.4.103.106'
p6901
I8444
tp6902
tp6903
Rp6904
I1420762725
sg2
(g3
g4
(S'89.189.182.23'
p6905
I8444
tp6906
tp6907
Rp6908
I1420830054
sg2
(g3
g4
(S'72.89.126.159'
p6909
I8444
tp6910
tp6911
Rp6912
I1420838449
sg2
(g3
g4
(S'162.219.179.162'
p6913
I8444
tp6914
tp6915
Rp6916
I1420825812
sg2
(g3
g4
(S'41.249.3.222'
p6917
I8444
tp6918
tp6919
Rp6920
I1420762763
sg2
(g3
g4
(S'187.204.164.10'
p6921
I8444
tp6922
tp6923
Rp6924
I1421621491
sg2
(g3
g4
(S'184.75.223.42'
p6925
I8444
tp6926
tp6927
Rp6928
I1421621138
sg2
(g3
g4
(S'217.12.204.104'
p6929
I8445
tp6930
tp6931
Rp6932
I1420817297
sg2
(g3
g4
(S'104.219.184.133'
p6933
I8444
tp6934
tp6935
Rp6936
I1421628406
sg2
(g3
g4
(S'82.137.12.225'
p6937
I8444
tp6938
tp6939
Rp6940
I1420730860
sg2
(g3
g4
(S'184.75.211.254'
p6941
I8444
tp6942
tp6943
Rp6944
I1421620048
sg2
(g3
g4
(S'132.199.121.129'
p6945
I8404
tp6946
tp6947
Rp6948
I1420727241
sg2
(g3
g4
(S'91.240.112.10'
p6949
I64636
tp6950
tp6951
Rp6952
I1420727942
sg2
(g3
g4
(S'62.46.70.113'
p6953
I8444
tp6954
tp6955
Rp6956
I1420842806
sg2
(g3
g4
(S'46.165.223.217'
p6957
I8444
tp6958
tp6959
Rp6960
I1420837718
sg2
(g3
g4
(S'91.240.112.10'
p6961
I62490
tp6962
tp6963
Rp6964
I1420727768
sg2
(g3
g4
(S'109.254.192.18'
p6965
I8444
tp6966
tp6967
Rp6968
I1420832109
sg2
(g3
g4
(S'76.114.39.128'
p6969
I8444
tp6970
tp6971
Rp6972
I1420845089
sg2
(g3
g4
(S'93.189.2.18'
p6973
I55446
tp6974
tp6975
Rp6976
I1421628445
sg2
(g3
g4
(S'107.150.53.178'
p6977
I8444
tp6978
tp6979
Rp6980
I1420834462
sg2
(g3
g4
(S'190.42.45.7'
p6981
I8444
tp6982
tp6983
Rp6984
I1420831432
sg2
(g3
g4
(S'80.60.85.169'
p6985
I8444
tp6986
tp6987
Rp6988
I1421621763
sg2
(g3
g4
(S'95.211.229.158'
p6989
I8444
tp6990
tp6991
Rp6992
I1421629864
sg2
(g3
g4
(S'91.240.112.10'
p6993
I51536
tp6994
tp6995
Rp6996
I1420737234
sg2
(g3
g4
(S'141.45.198.135'
p6997
I8445
tp6998
tp6999
Rp7000
I1420727727
sg2
(g3
g4
(S'94.254.51.246'
p7001
I8444
tp7002
tp7003
Rp7004
I1420832679
sg2
(g3
g4
(S'192.99.150.152'
p7005
I59106
tp7006
tp7007
Rp7008
I1420822773
sg2
(g3
g4
(S'92.211.8.125'
p7009
I9150
tp7010
tp7011
Rp7012
I1420734650
sg2
(g3
g4
(S'178.27.192.64'
p7013
I8444
tp7014
tp7015
Rp7016
I1420736949
sg2
(g3
g4
(S'193.110.157.151'
p7017
I8444
tp7018
tp7019
Rp7020
I1420839755
sg2
(g3
g4
(S'84.139.116.215'
p7021
I8444
tp7022
tp7023
Rp7024
I1420729746
sg2
(g3
g4
(S'222.164.194.233'
p7025
I8444
tp7026
tp7027
Rp7028
I1420837364
sg2
(g3
g4
(S'184.75.223.218'
p7029
I8444
tp7030
tp7031
Rp7032
I1420842452
sg2
(g3
g4
(S'54.77.7.164'
p7033
I8444
tp7034
tp7035
Rp7036
I1420825579
sg2
(g3
g4
(S'85.159.209.154'
p7037
I8444
tp7038
tp7039
Rp7040
I1420841600
sg2
(g3
g4
(S'93.201.0.10'
p7041
I8444
tp7042
tp7043
Rp7044
I1420738182
sg2
(g3
g4
(S'188.40.23.92'
p7045
I8444
tp7046
tp7047
Rp7048
I1420827917
sg2
(g3
g4
(S'213.162.68.94'
p7049
I8444
tp7050
tp7051
Rp7052
I1420839623
sg2
(g3
g4
(S'173.208.166.218'
p7053
I8444
tp7054
tp7055
Rp7056
I1421628128
sg2
(g3
g4
(S'79.218.97.42'
p7057
I8444
tp7058
tp7059
Rp7060
I1420730365
sg2
(g3
g4
(S'82.57.10.247'
p7061
I8444
tp7062
tp7063
Rp7064
I1421628486
sg2
(g3
g4
(S'2a02:8388:1681:6700:29b3:6378:867a:3ed2'
p7065
I8444
tp7066
tp7067
Rp7068
I1420843737
sg2
(g3
g4
(S'37.59.67.101'
p7069
I8080
tp7070
tp7071
Rp7072
I1420815259
sg2
(g3
g4
(S'2003:7a:4d34:2a00:809f:1cea:3937:cf22'
p7073
I8444
tp7074
tp7075
Rp7076
I1420838624
sg2
(g3
g4
(S'2003:46:8d01:4dd4:5937:8346:f781:7e09'
p7077
I8444
tp7078
tp7079
Rp7080
I1420730648
sg2
(g3
g4
(S'84.159.196.116'
p7081
I8444
tp7082
tp7083
Rp7084
I1420736463
sg2
(g3
g4
(S'2002:8d46:12a9::8d46:12a9'
p7085
I8444
tp7086
tp7087
Rp7088
I1420813765
sg2
(g3
g4
(S'174.109.99.210'
p7089
I8444
tp7090
tp7091
Rp7092
I1420759371
sg2
(g3
g4
(S'46.75.44.198'
p7093
I8444
tp7094
tp7095
Rp7096
I1420823542
sg2
(g3
g4
(S'91.240.112.10'
p7097
I56787
tp7098
tp7099
Rp7100
I1420826175
sg2
(g3
g4
(S'37.188.68.169'
p7101
I8444
tp7102
tp7103
Rp7104
I1420841070
sg2
(g3
g4
(S'188.40.23.89'
p7105
I8444
tp7106
tp7107
Rp7108
I1420834362
sg2
(g3
g4
(S'90.220.126.194'
p7109
I8444
tp7110
tp7111
Rp7112
I1420818015
sg2
(g3
g4
(S'91.64.245.7'
p7113
I8444
tp7114
tp7115
Rp7116
I1420840688
sg2
(g3
g4
(S'24.65.108.141'
p7117
I8444
tp7118
tp7119
Rp7120
I1420840402
sg2
(g3
g4
(S'217.194.59.103'
p7121
I8444
tp7122
tp7123
Rp7124
I1420756814
sg2
(g3
g4
(S'176.127.220.228'
p7125
I8444
tp7126
tp7127
Rp7128
I1420839553
sg2
(g3
g4
(S'86.1.183.17'
p7129
I8444
tp7130
tp7131
Rp7132
I1421622853
sg2
(g3
g4
(S'217.8.50.99'
p7133
I8444
tp7134
tp7135
Rp7136
I1420725321
sg2
(g3
g4
(S'173.192.81.142'
p7137
I8444
tp7138
tp7139
Rp7140
I1420816786
sg2
(g3
g4
(S'62.210.74.186'
p7141
I80
tp7142
tp7143
Rp7144
I1420833387
sg2
(g3
g4
(S'24.239.97.146'
p7145
I8444
tp7146
tp7147
Rp7148
I1420816467
sg2
(g3
g4
(S'213.64.226.230'
p7149
I8444
tp7150
tp7151
Rp7152
I1421622424
sg2
(g3
g4
(S'37.138.89.115'
p7153
I8444
tp7154
tp7155
Rp7156
I1420737004
sg2
(g3
g4
(S'79.243.200.57'
p7157
I8444
tp7158
tp7159
Rp7160
I1420761823
sg2
(g3
g4
(S'2a02:2f0a:305c:6b00:b901:f0f1:fe7e:e2c7'
p7161
I8444
tp7162
tp7163
Rp7164
I1420824198
sg2
(g3
g4
(S'77.247.181.162'
p7165
I22444
tp7166
tp7167
Rp7168
I1420833533
sg2
(g3
g4
(S'212.71.252.109'
p7169
I8444
tp7170
tp7171
Rp7172
I1421629637
sg2
(g3
g4
(S'141.100.108.234'
p7173
I8444
tp7174
tp7175
Rp7176
I1420843368
sg2
(g3
g4
(S'84.58.96.127'
p7177
I8444
tp7178
tp7179
Rp7180
I1420737620
sg2
(g3
g4
(S'54.86.107.65'
p7181
I8444
tp7182
tp7183
Rp7184
I1421628801
sg2
(g3
g4
(S'124.171.98.104'
p7185
I8444
tp7186
tp7187
Rp7188
I1420764072
sg2
(g3
g4
(S'67.168.170.159'
p7189
I8444
tp7190
tp7191
Rp7192
I1420843610
sg2
(g3
g4
(S'67.249.242.43'
p7193
I8444
tp7194
tp7195
Rp7196
I1421623637
sg2
(g3
g4
(S'198.2.65.88'
p7197
I8444
tp7198
tp7199
Rp7200
I1420828057
sg2
(g3
g4
(S'84.164.77.130'
p7201
I8444
tp7202
tp7203
Rp7204
I1420735890
sg2
(g3
g4
(S'94.242.246.32'
p7205
I8444
tp7206
tp7207
Rp7208
I1420823804
sg2
(g3
g4
(S'176.58.120.181'
p7209
I8444
tp7210
tp7211
Rp7212
I1420845053
sg2
(g3
g4
(S'2001:0:c38c:c38c:c88:2d08:4f3d:e287'
p7213
I8444
tp7214
tp7215
Rp7216
I1420736653
sg2
(g3
g4
(S'81.169.141.1'
p7217
I8444
tp7218
tp7219
Rp7220
I1420766820
sg2
(g3
g4
(S'77.95.229.17'
p7221
I8444
tp7222
tp7223
Rp7224
I1420840067
sg2
(g3
g4
(S'81.64.77.101'
p7225
I8444
tp7226
tp7227
Rp7228
I1421631017
sg2
(g3
g4
(S'93.189.2.18'
p7229
I60996
tp7230
tp7231
Rp7232
I1421625245
sg2
(g3
g4
(S'190.162.17.166'
p7233
I8444
tp7234
tp7235
Rp7236
I1420841794
sg2
(g3
g4
(S'2001:5c0:1400:a::bf'
p7237
I8444
tp7238
tp7239
Rp7240
I1420762264
sg2
(g3
g4
(S'91.62.15.111'
p7241
I8444
tp7242
tp7243
Rp7244
I1420832824
sg2
(g3
g4
(S'46.51.183.140'
p7245
I8444
tp7246
tp7247
Rp7248
I1420818280
sg2
(g3
g4
(S'173.62.250.112'
p7249
I8444
tp7250
tp7251
Rp7252
I1421622980
sg2
(g3
g4
(S'162.219.176.58'
p7253
I8444
tp7254
tp7255
Rp7256
I1420735227
sg2
(g3
g4
(S'171.6.245.220'
p7257
I8444
tp7258
tp7259
Rp7260
I1420818942
sg2
(g3
g4
(S'109.155.173.146'
p7261
I8444
tp7262
tp7263
Rp7264
I1421624295
sg2
(g3
g4
(S'96.61.174.103'
p7265
I8444
tp7266
tp7267
Rp7268
I1420840403
sg2
(g3
g4
(S'79.237.29.94'
p7269
I8444
tp7270
tp7271
Rp7272
I1420727946
sg2
(g3
g4
(S'37.221.169.150'
p7273
I8444
tp7274
tp7275
Rp7276
I1421628877
sg2
(g3
g4
(S'54.154.11.227'
p7277
I8444
tp7278
tp7279
Rp7280
I1420835092
sg2
(g3
g4
(S'162.219.176.186'
p7281
I8444
tp7282
tp7283
Rp7284
I1420840141
sg2
(g3
g4
(S'176.61.137.221'
p7285
I8444
tp7286
tp7287
Rp7288
I1420758702
sg2
(g3
g4
(S'95.130.15.96'
p7289
I9150
tp7290
tp7291
Rp7292
I1420841073
sg2
(g3
g4
(S'75.76.59.66'
p7293
I8444
tp7294
tp7295
Rp7296
I1420731791
sg2
(g3
g4
(S'46.166.186.225'
p7297
I8444
tp7298
tp7299
Rp7300
I1421630526
sg2
(g3
g4
(S'37.48.74.76'
p7301
I8444
tp7302
tp7303
Rp7304
I1420760017
sg2
(g3
g4
(S'2001:0:9d38:6abd:ca6:2865:2615:965d'
p7305
I8444
tp7306
tp7307
Rp7308
I1420831057
sg2
(g3
g4
(S'81.95.190.6'
p7309
I8444
tp7310
tp7311
Rp7312
I1421619685
sg2
(g3
g4
(S'2a02:810d:8940:e0:85bc:33e3:34f5:be75'
p7313
I8444
tp7314
tp7315
Rp7316
I1421624813
sg2
(g3
g4
(S'91.240.112.10'
p7317
I51676
tp7318
tp7319
Rp7320
I1420737775
sg2
(g3
g4
(S'109.229.151.3'
p7321
I8444
tp7322
tp7323
Rp7324
I1420826517
sg2
(g3
g4
(S'162.253.129.2'
p7325
I8444
tp7326
tp7327
Rp7328
I1420840150
sg2
(g3
g4
(S'75.132.133.177'
p7329
I8444
tp7330
tp7331
Rp7332
I1421629855
sg2
(g3
g4
(S'176.198.91.237'
p7333
I8444
tp7334
tp7335
Rp7336
I1420842728
sg2
(g3
g4
(S'83.10.235.194'
p7337
I8444
tp7338
tp7339
Rp7340
I1420730949
sg2
(g3
g4
(S'2a02:2f0a:305c:6b00:2d70:687c:35b6:d531'
p7341
I8444
tp7342
tp7343
Rp7344
I1420818690
sg2
(g3
g4
(S'184.75.212.26'
p7345
I8444
tp7346
tp7347
Rp7348
I1420761611
sg2
(g3
g4
(S'87.142.4.49'
p7349
I8444
tp7350
tp7351
Rp7352
I1420760635
sg2
(g3
g4
(S'88.177.52.213'
p7353
I8444
tp7354
tp7355
Rp7356
I1420841276
sg2
(g3
g4
(S'91.240.112.10'
p7357
I54398
tp7358
tp7359
Rp7360
I1420816940
sg2
(g3
g4
(S'2002:2eb7:dc5c::2eb7:dc5c'
p7361
I8444
tp7362
tp7363
Rp7364
I1420736621
sg2
(g3
g4
(S'87.98.159.231'
p7365
I8444
tp7366
tp7367
Rp7368
I1421620256
sg2
(g3
g4
(S'72.228.35.224'
p7369
I8444
tp7370
tp7371
Rp7372
I1420836619
sg2
(g3
g4
(S'95.79.97.60'
p7373
I8444
tp7374
tp7375
Rp7376
I1421624530
sg2
(g3
g4
(S'68.87.91.199'
p7377
I8444
tp7378
tp7379
Rp7380
I1420833741
sg2
(g3
g4
(S'198.199.97.80'
p7381
I8444
tp7382
tp7383
Rp7384
I1421628360
sg2
(g3
g4
(S'78.172.118.127'
p7385
I8444
tp7386
tp7387
Rp7388
I1420817877
sg2
(g3
g4
(S'2600:3c03::f03c:91ff:fe73:842f'
p7389
I8444
tp7390
tp7391
Rp7392
I1420842573
sg2
(g3
g4
(S'198.15.119.2'
p7393
I8444
tp7394
tp7395
Rp7396
I1420757528
sg2
(g3
g4
(S'213.203.150.7'
p7397
I8444
tp7398
tp7399
Rp7400
I1420839079
sg2
(g3
g4
(S'188.138.9.49'
p7401
I8444
tp7402
tp7403
Rp7404
I1420832703
sg2
(g3
g4
(S'188.134.7.197'
p7405
I8444
tp7406
tp7407
Rp7408
I1420813614
sg2
(g3
g4
(S'31.193.169.163'
p7409
I8444
tp7410
tp7411
Rp7412
I1420760557
sg2
(g3
g4
(S'74.192.165.189'
p7413
I8444
tp7414
tp7415
Rp7416
I1420842876
sg2
(g3
g4
(S'50.184.187.17'
p7417
I8444
tp7418
tp7419
Rp7420
I1420783792
sg2
(g3
g4
(S'176.126.252.11'
p7421
I8444
tp7422
tp7423
Rp7424
I1421629672
sg2
(g3
g4
(S'108.61.72.12'
p7425
I28445
tp7426
tp7427
Rp7428
I1420756309
sg2
(g3
g4
(S'76.21.84.57'
p7429
I8444
tp7430
tp7431
Rp7432
I1420838400
sg2
(g3
g4
(S'80.153.204.162'
p7433
I8444
tp7434
tp7435
Rp7436
I1420727790
sg2
(g3
g4
(S'2001:0:9d38:90d7:30a0:3f5e:9775:1e36'
p7437
I8444
tp7438
tp7439
Rp7440
I1420832816
sg2
(g3
g4
(S'74.120.223.140'
p7441
I8444
tp7442
tp7443
Rp7444
I1420833275
sg2
(g3
g4
(S'176.51.190.108'
p7445
I8444
tp7446
tp7447
Rp7448
I1420730763
sg2
(g3
g4
(S'92.81.158.41'
p7449
I8444
tp7450
tp7451
Rp7452
I1420824569
sg2
(g3
g4
(S'81.107.254.40'
p7453
I8444
tp7454
tp7455
Rp7456
I1421624197
sg2
(g3
g4
(S'93.189.2.18'
p7457
I50391
tp7458
tp7459
Rp7460
I1421626995
sg2
(g3
g4
(S'92.255.140.53'
p7461
I8444
tp7462
tp7463
Rp7464
I1421623224
sg2
(g3
g4
(S'41.249.176.55'
p7465
I8444
tp7466
tp7467
Rp7468
I1420826192
sg2
(g3
g4
(S'62.203.149.129'
p7469
I8444
tp7470
tp7471
Rp7472
I1420728374
sg2
(g3
g4
(S'82.165.137.178'
p7473
I8444
tp7474
tp7475
Rp7476
I1421623249
sg2
(g3
g4
(S'109.201.154.153'
p7477
I8444
tp7478
tp7479
Rp7480
I1420827262
sg2
(g3
g4
(S'2602:30a:2c77:d210:656a:dfec:77b7:c8c6'
p7481
I8444
tp7482
tp7483
Rp7484
I1420843049
sg2
(g3
g4
(S'104.245.145.234'
p7485
I8444
tp7486
tp7487
Rp7488
I1420843175
sg2
(g3
g4
(S'88.104.9.252'
p7489
I8444
tp7490
tp7491
Rp7492
I1420837352
sg2
(g3
g4
(S'188.195.184.12'
p7493
I8444
tp7494
tp7495
Rp7496
I1420736012
sg2
(g3
g4
(S'92.100.127.100'
p7497
I8444
tp7498
tp7499
Rp7500
I1420734508
sg2
(g3
g4
(S'2601:e:2c80:1517:b43b:8416:ab92:d51d'
p7501
I8444
tp7502
tp7503
Rp7504
I1420814405
sg2
(g3
g4
(S'84.132.109.44'
p7505
I8444
tp7506
tp7507
Rp7508
I1420728924
sg2
(g3
g4
(S'78.213.138.160'
p7509
I8444
tp7510
tp7511
Rp7512
I1421626256
sg2
(g3
g4
(S'69.210.249.47'
p7513
I8444
tp7514
tp7515
Rp7516
I1420756382
sg2
(g3
g4
(S'188.100.206.59'
p7517
I8444
tp7518
tp7519
Rp7520
I1420841340
sg2
(g3
g4
(S'182.55.148.217'
p7521
I8444
tp7522
tp7523
Rp7524
I1420823560
sg2
(g3
g4
(S'92.72.96.246'
p7525
I8444
tp7526
tp7527
Rp7528
I1420737580
sg2
(g3
g4
(S'162.253.131.210'
p7529
I8444
tp7530
tp7531
Rp7532
I1420837768
sg2
(g3
g4
(S'212.78.203.11'
p7533
I8444
tp7534
tp7535
Rp7536
I1420760974
sg2
(g3
g4
(S'186.138.174.17'
p7537
I8444
tp7538
tp7539
Rp7540
I1421628833
sg2
(g3
g4
(S'78.110.172.101'
p7541
I8444
tp7542
tp7543
Rp7544
I1420839102
sg2
(g3
g4
(S'91.240.112.10'
p7545
I51234
tp7546
tp7547
Rp7548
I1420736444
sg2
(g3
g4
(S'67.215.157.31'
p7549
I8444
tp7550
tp7551
Rp7552
I1421630138
sg2
(g3
g4
(S'77.247.181.165'
p7553
I6881
tp7554
tp7555
Rp7556
I1420840430
sg2
(g3
g4
(S'37.48.80.173'
p7557
I49395
tp7558
tp7559
Rp7560
I1420832851
sg2
(g3
g4
(S'80.61.150.57'
p7561
I8444
tp7562
tp7563
Rp7564
I1420825312
sg2
(g3
g4
(S'178.204.185.144'
p7565
I8444
tp7566
tp7567
Rp7568
I1420731998
sg2
(g3
g4
(S'2a02:810d:280:c90:799d:6056:7cf2:6638'
p7569
I8444
tp7570
tp7571
Rp7572
I1420815859
sg2
(g3
g4
(S'181.124.98.154'
p7573
I8444
tp7574
tp7575
Rp7576
I1421626991
sg2
(g3
g4
(S'189.169.174.219'
p7577
I8444
tp7578
tp7579
Rp7580
I1420765754
sg2
(g3
g4
(S'81.231.226.38'
p7581
I8444
tp7582
tp7583
Rp7584
I1420830780
sg2
(g3
g4
(S'151.46.25.71'
p7585
I8444
tp7586
tp7587
Rp7588
I1420728928
sg2
(g3
g4
(S'37.59.67.101'
p7589
I9002
tp7590
tp7591
Rp7592
I1420724887
sg2
(g3
g4
(S'46.165.251.67'
p7593
I8444
tp7594
tp7595
Rp7596
I1421625782
sg2
(g3
g4
(S'188.114.6.54'
p7597
I8444
tp7598
tp7599
Rp7600
I1420737830
sg2
(g3
g4
(S'154.67.121.155'
p7601
I8444
tp7602
tp7603
Rp7604
I1420738356
sg2
(g3
g4
(S'184.75.221.210'
p7605
I8444
tp7606
tp7607
Rp7608
I1420766446
sg2
(g3
g4
(S'213.106.76.216'
p7609
I36532
tp7610
tp7611
Rp7612
I1420824772
sg2
(g3
g4
(S'188.226.224.242'
p7613
I8444
tp7614
tp7615
Rp7616
I1421626069
sg2
(g3
g4
(S'41.249.182.48'
p7617
I8444
tp7618
tp7619
Rp7620
I1420827861
sg2
(g3
g4
(S'171.25.193.235'
p7621
I9006
tp7622
tp7623
Rp7624
I1420837506
sg2
(g3
g4
(S'162.253.129.18'
p7625
I8444
tp7626
tp7627
Rp7628
I1420842410
sg2
(g3
g4
(S'91.240.112.10'
p7629
I54709
tp7630
tp7631
Rp7632
I1420819855
sg2
(g3
g4
(S'109.190.142.126'
p7633
I8444
tp7634
tp7635
Rp7636
I1420837085
sg2
(g3
g4
(S'54.174.207.47'
p7637
I8444
tp7638
tp7639
Rp7640
I1420835321
sg2
(g3
g4
(S'140.109.54.2'
p7641
I8444
tp7642
tp7643
Rp7644
I1421628383
sg2
(g3
g4
(S'185.61.148.46'
p7645
I8444
tp7646
tp7647
Rp7648
I1420827843
sg2
(g3
g4
(S'18.239.0.140'
p7649
I8080
tp7650
tp7651
Rp7652
I1421627202
sg2
(g3
g4
(S'87.88.112.32'
p7653
I8444
tp7654
tp7655
Rp7656
I1420840192
sg2
(g3
g4
(S'46.20.53.131'
p7657
I8444
tp7658
tp7659
Rp7660
I1420842640
sg2
(g3
g4
(S'46.165.208.105'
p7661
I8444
tp7662
tp7663
Rp7664
I1420837973
sg2
(g3
g4
(S'109.106.138.113'
p7665
I8444
tp7666
tp7667
Rp7668
I1420833124
sg2
(g3
g4
(S'217.172.29.179'
p7669
I8444
tp7670
tp7671
Rp7672
I1420823810
sg2
(g3
g4
(S'46.246.13.20'
p7673
I8444
tp7674
tp7675
Rp7676
I1420725001
sg2
(g3
g4
(S'46.59.229.54'
p7677
I8444
tp7678
tp7679
Rp7680
I1420817522
sg2
(g3
g4
(S'77.234.41.135'
p7681
I8444
tp7682
tp7683
Rp7684
I1420830836
sg2
(g3
g4
(S'154.35.132.83'
p7685
I8444
tp7686
tp7687
Rp7688
I1420830089
sg2
(g3
g4
(S'81.28.198.4'
p7689
I8444
tp7690
tp7691
Rp7692
I1420732593
sg2
(g3
g4
(S'199.254.238.197'
p7693
I8444
tp7694
tp7695
Rp7696
I1420735405
sg2
(g3
g4
(S'79.103.222.137'
p7697
I8444
tp7698
tp7699
Rp7700
I1420830056
sg2
(g3
g4
(S'89.17.48.87'
p7701
I8444
tp7702
tp7703
Rp7704
I1420836587
sg2
(g3
g4
(S'109.201.154.177'
p7705
I8444
tp7706
tp7707
Rp7708
I1420841349
sg2
(g3
g4
(S'89.112.61.78'
p7709
I8444
tp7710
tp7711
Rp7712
I1420730745
sg2
(g3
g4
(S'67.221.255.55'
p7713
I8444
tp7714
tp7715
Rp7716
I1420736387
sg2
(g3
g4
(S'185.46.163.211'
p7717
I8444
tp7718
tp7719
Rp7720
I1420832019
sg2
(g3
g4
(S'79.198.169.176'
p7721
I8444
tp7722
tp7723
Rp7724
I1420725098
sg2
(g3
g4
(S'109.192.194.109'
p7725
I8444
tp7726
tp7727
Rp7728
I1420761223
sg2
(g3
g4
(S'75.151.145.165'
p7729
I8444
tp7730
tp7731
Rp7732
I1420840378
sg2
(g3
g4
(S'91.240.112.10'
p7733
I55443
tp7734
tp7735
Rp7736
I1420821780
sg2
(g3
g4
(S'90.44.13.106'
p7737
I8444
tp7738
tp7739
Rp7740
I1420842746
sg2
(g3
g4
(S'2.4.168.209'
p7741
I8444
tp7742
tp7743
Rp7744
I1420836531
sg2
(g3
g4
(S'93.110.223.138'
p7745
I8444
tp7746
tp7747
Rp7748
I1420831456
sg2
(g3
g4
(S'2601:9:5783:4fb0:baac:6fff:fe4b:65de'
p7749
I8444
tp7750
tp7751
Rp7752
I1421624183
sg2
(g3
g4
(S'94.242.246.23'
p7753
I8444
tp7754
tp7755
Rp7756
I1420840525
sg2
(g3
g4
(S'79.163.240.110'
p7757
I8446
tp7758
tp7759
Rp7760
I1420843092
sg2
(g3
g4
(S'24.239.62.172'
p7761
I8444
tp7762
tp7763
Rp7764
I1420838499
sg2
(g3
g4
(S'96.44.189.100'
p7765
I8444
tp7766
tp7767
Rp7768
I1421620740
sg2
(g3
g4
(S'192.99.159.16'
p7769
I8444
tp7770
tp7771
Rp7772
I1420734602
sg2
(g3
g4
(S'109.201.154.209'
p7773
I8888
tp7774
tp7775
Rp7776
I1420728480
sg2
(g3
g4
(S'162.219.176.10'
p7777
I8444
tp7778
tp7779
Rp7780
I1420725845
sg2
(g3
g4
(S'188.113.114.120'
p7781
I8123
tp7782
tp7783
Rp7784
I1420737863
sg2
(g3
g4
(S'217.118.95.107'
p7785
I8444
tp7786
tp7787
Rp7788
I1420829425
sg2
(g3
g4
(S'85.159.215.160'
p7789
I8444
tp7790
tp7791
Rp7792
I1420839865
sg2
(g3
g4
(S'162.248.99.114'
p7793
I8444
tp7794
tp7795
Rp7796
I1420729569
sg2
(g3
g4
(S'217.42.41.60'
p7797
I8444
tp7798
tp7799
Rp7800
I1420836645
sg2
(g3
g4
(S'93.100.183.91'
p7801
I8444
tp7802
tp7803
Rp7804
I1420839539
sg2
(g3
g4
(S'77.56.2.132'
p7805
I8444
tp7806
tp7807
Rp7808
I1420825566
sg2
(g3
g4
(S'93.128.48.246'
p7809
I999
tp7810
tp7811
Rp7812
I1421623282
sg2
(g3
g4
(S'91.240.112.10'
p7813
I8444
tp7814
tp7815
Rp7816
I1420822385
sg2
(g3
g4
(S'87.91.22.105'
p7817
I8444
tp7818
tp7819
Rp7820
I1420838463
sg2
(g3
g4
(S'87.106.17.8'
p7821
I8444
tp7822
tp7823
Rp7824
I1420828093
sg2
(g3
g4
(S'2001:0:9d38:6ab8:34fd:b3d:b656:a3ea'
p7825
I8444
tp7826
tp7827
Rp7828
I1421628481
sg2
(g3
g4
(S'172.56.9.32'
p7829
I8444
tp7830
tp7831
Rp7832
I1420836574
sg2
(g3
g4
(S'83.20.26.222'
p7833
I8444
tp7834
tp7835
Rp7836
I1420829307
sg2
(g3
g4
(S'79.198.168.108'
p7837
I8444
tp7838
tp7839
Rp7840
I1420835133
sg2
(g3
g4
(S'93.221.193.3'
p7841
I8444
tp7842
tp7843
Rp7844
I1420842204
sg2
(g3
g4
(S'91.224.149.33'
p7845
I8444
tp7846
tp7847
Rp7848
I1421621765
sg2
(g3
g4
(S'84.155.60.85'
p7849
I8444
tp7850
tp7851
Rp7852
I1420833437
sg2
(g3
g4
(S'171.25.193.20'
p7853
I9002
tp7854
tp7855
Rp7856
I1421621866
sg2
(g3
g4
(S'88.241.8.122'
p7857
I8444
tp7858
tp7859
Rp7860
I1420825521
sg2
(g3
g4
(S'49.49.141.58'
p7861
I8444
tp7862
tp7863
Rp7864
I1420818066
sg2
(g3
g4
(S'91.158.74.99'
p7865
I8444
tp7866
tp7867
Rp7868
I1420764912
sg2
(g3
g4
(S'2404:160:0:f:0:2:9ede:d351'
p7869
I8080
tp7870
tp7871
Rp7872
I1420842268
sg2
(g3
g4
(S'79.228.252.235'
p7873
I8444
tp7874
tp7875
Rp7876
I1420737372
sg2
(g3
g4
(S'46.19.137.116'
p7877
I8444
tp7878
tp7879
Rp7880
I1421623107
sg2
(g3
g4
(S'199.58.83.10'
p7881
I8444
tp7882
tp7883
Rp7884
I1420836581
sg2
(g3
g4
(S'184.75.223.194'
p7885
I8444
tp7886
tp7887
Rp7888
I1420842511
sg2
(g3
g4
(S'176.193.64.1'
p7889
I8444
tp7890
tp7891
Rp7892
I1420822546
sg2
(g3
g4
(S'178.143.81.84'
p7893
I8444
tp7894
tp7895
Rp7896
I1420843339
sg2
(g3
g4
(S'46.229.235.149'
p7897
I8444
tp7898
tp7899
Rp7900
I1420822304
sg2
(g3
g4
(S'174.0.118.237'
p7901
I8444
tp7902
tp7903
Rp7904
I1420840412
sg2
(g3
g4
(S'194.150.168.95'
p7905
I8080
tp7906
tp7907
Rp7908
I1420841562
sg2
(g3
g4
(S'173.248.235.93'
p7909
I8444
tp7910
tp7911
Rp7912
I1420839849
sg2
(g3
g4
(S'183.171.185.25'
p7913
I8444
tp7914
tp7915
Rp7916
I1420839070
sg2
(g3
g4
(S'78.147.141.19'
p7917
I8444
tp7918
tp7919
Rp7920
I1420843456
sg2
(g3
g4
(S'2a02:8071:9193:c900:ade1:956d:f160:9d3e'
p7921
I8444
tp7922
tp7923
Rp7924
I1420839247
sg2
(g3
g4
(S'216.167.134.188'
p7925
I8444
tp7926
tp7927
Rp7928
I1420834185
sg2
(g3
g4
(S'86.174.157.210'
p7929
I8444
tp7930
tp7931
Rp7932
I1420836190
sg2
(g3
g4
(S'46.19.141.158'
p7933
I8444
tp7934
tp7935
Rp7936
I1421629600
sg2
(g3
g4
(S'95.188.90.31'
p7937
I8444
tp7938
tp7939
Rp7940
I1421629613
sg2
(g3
g4
(S'24.247.175.218'
p7941
I8444
tp7942
tp7943
Rp7944
I1420735765
sg2
(g3
g4
(S'92.248.215.46'
p7945
I8444
tp7946
tp7947
Rp7948
I1420840917
sg2
(g3
g4
(S'78.43.42.106'
p7949
I8444
tp7950
tp7951
Rp7952
I1420839239
sg2
(g3
g4
(S'89.39.94.156'
p7953
I8444
tp7954
tp7955
Rp7956
I1420759082
sg2
(g3
g4
(S'87.167.100.224'
p7957
I8444
tp7958
tp7959
Rp7960
I1420817267
sg2
(g3
g4
(S'5.135.158.101'
p7961
I8444
tp7962
tp7963
Rp7964
I1420840406
sg2
(g3
g4
(S'206.217.208.161'
p7965
I8444
tp7966
tp7967
Rp7968
I1420734467
sg2
(g3
g4
(S'37.157.195.83'
p7969
I8445
tp7970
tp7971
Rp7972
I1420839743
sg2
(g3
g4
(S'24.2.169.190'
p7973
I8444
tp7974
tp7975
Rp7976
I1420837299
sg2
(g3
g4
(S'162.253.130.18'
p7977
I8444
tp7978
tp7979
Rp7980
I1420821820
sg2
(g3
g4
(S'69.133.69.43'
p7981
I8444
tp7982
tp7983
Rp7984
I1421631041
sg2
(g3
g4
(S'176.198.241.91'
p7985
I8444
tp7986
tp7987
Rp7988
I1420844090
sg2
(g3
g4
(S'192.240.97.10'
p7989
I8444
tp7990
tp7991
Rp7992
I1420731172
sg2
(g3
g4
(S'195.91.246.177'
p7993
I8444
tp7994
tp7995
Rp7996
I1420735988
sg2
(g3
g4
(S'162.253.128.172'
p7997
I8444
tp7998
tp7999
Rp8000
I1420837776
sg2
(g3
g4
(S'185.63.252.158'
p8001
I8444
tp8002
tp8003
Rp8004
I1420832871
sg2
(g3
g4
(S'206.116.240.234'
p8005
I8444
tp8006
tp8007
Rp8008
I1421624765
sg2
(g3
g4
(S'2a02:908:db50:6d20:41be:c5a6:8610:720f'
p8009
I8444
tp8010
tp8011
Rp8012
I1420835513
sg2
(g3
g4
(S'91.240.112.10'
p8013
I50879
tp8014
tp8015
Rp8016
I1420734948
sg2
(g3
g4
(S'62.210.74.143'
p8017
I8444
tp8018
tp8019
Rp8020
I1420830088
sg2
(g3
g4
(S'2a02:8109:92c0:11ee:51ee:eb4e:2c80:62c7'
p8021
I23120
tp8022
tp8023
Rp8024
I1420738412
sg2
(g3
g4
(S'104.245.146.9'
p8025
I8444
tp8026
tp8027
Rp8028
I1420758042
sg2
(g3
g4
(S'84.197.107.244'
p8029
I8444
tp8030
tp8031
Rp8032
I1420815009
sg2
(g3
g4
(S'217.19.31.167'
p8033
I8444
tp8034
tp8035
Rp8036
I1420835378
sg2
(g3
g4
(S'37.157.197.115'
p8037
I8444
tp8038
tp8039
Rp8040
I1420820957
sg2
(g3
g4
(S'54.77.143.74'
p8041
I8444
tp8042
tp8043
Rp8044
I1420757827
sg2
(g3
g4
(S'192.99.150.152'
p8045
I57404
tp8046
tp8047
Rp8048
I1420835187
sg2
(g3
g4
(S'50.135.218.41'
p8049
I8444
tp8050
tp8051
Rp8052
I1421629642
sg2
(g3
g4
(S'188.138.39.8'
p8053
I8444
tp8054
tp8055
Rp8056
I1420843172
sg2
(g3
g4
(S'188.226.254.113'
p8057
I8444
tp8058
tp8059
Rp8060
I1421625570
sg2
(g3
g4
(S'68.173.32.139'
p8061
I8444
tp8062
tp8063
Rp8064
I1420833374
sg2
(g3
g4
(S'96.43.160.171'
p8065
I8444
tp8066
tp8067
Rp8068
I1420823257
sg2
(g3
g4
(S'84.171.102.56'
p8069
I8444
tp8070
tp8071
Rp8072
I1420731910
sg2
(g3
g4
(S'2605:6000:eacd:1f00:f820:76d6:7497:abd8'
p8073
I8444
tp8074
tp8075
Rp8076
I1420832414
sg2
(g3
g4
(S'81.89.0.197'
p8077
I8444
tp8078
tp8079
Rp8080
I1420824120
sg2
(g3
g4
(S'46.166.186.244'
p8081
I8888
tp8082
tp8083
Rp8084
I1420840296
sg2
(g3
g4
(S'74.107.89.239'
p8085
I8444
tp8086
tp8087
Rp8088
I1420840063
sg2
(g3
g4
(S'109.198.208.198'
p8089
I8444
tp8090
tp8091
Rp8092
I1420836956
sg2
(g3
g4
(S'95.211.196.213'
p8093
I8621
tp8094
tp8095
Rp8096
I1421627713
sg2
(g3
g4
(S'38.122.116.106'
p8097
I8444
tp8098
tp8099
Rp8100
I1420760235
sg2
(g3
g4
(S'91.240.112.10'
p8101
I50822
tp8102
tp8103
Rp8104
I1420734843
sg2
(g3
g4
(S'50.66.33.226'
p8105
I8444
tp8106
tp8107
Rp8108
I1421620553
sg2
(g3
g4
(S'5.135.154.91'
p8109
I8444
tp8110
tp8111
Rp8112
I1421630160
sg2
(g3
g4
(S'91.240.112.10'
p8113
I51030
tp8114
tp8115
Rp8116
I1420735647
sg2
(g3
g4
(S'104.153.30.7'
p8117
I8444
tp8118
tp8119
Rp8120
I1420823739
sg2
(g3
g4
(S'162.253.129.74'
p8121
I8444
tp8122
tp8123
Rp8124
I1420837785
sg2
(g3
g4
(S'2001:0:53aa:64c:c79:2d4b:438d:da7e'
p8125
I8444
tp8126
tp8127
Rp8128
I1420837058
sg2
(g3
g4
(S'46.165.222.248'
p8129
I8444
tp8130
tp8131
Rp8132
I1421631048
sg2
(g3
g4
(S'83.250.85.17'
p8133
I48444
tp8134
tp8135
Rp8136
I1420841987
sg2
(g3
g4
(S'185.14.195.140'
p8137
I8444
tp8138
tp8139
Rp8140
I1420736679
sg2
(g3
g4
(S'193.205.210.23'
p8141
I8444
tp8142
tp8143
Rp8144
I1420734119
sg2
(g3
g4
(S'65.100.223.163'
p8145
I8444
tp8146
tp8147
Rp8148
I1420840372
sg2
(g3
g4
(S'104.245.146.6'
p8149
I8444
tp8150
tp8151
Rp8152
I1420833552
sg2
(g3
g4
(S'240f:11:bc5e:1:c532:643c:e58d:a5a9'
p8153
I8444
tp8154
tp8155
Rp8156
I1420837360
sg2
(g3
g4
(S'128.117.43.92'
p8157
I8444
tp8158
tp8159
Rp8160
I1420762732
sg2
(g3
g4
(S'76.118.43.49'
p8161
I8444
tp8162
tp8163
Rp8164
I1420840176
sg2
(g3
g4
(S'184.166.84.147'
p8165
I8444
tp8166
tp8167
Rp8168
I1420823785
sg2
(g3
g4
(S'62.210.74.137'
p8169
I8444
tp8170
tp8171
Rp8172
I1421630906
sg2
(g3
g4
(S'104.245.146.94'
p8173
I8444
tp8174
tp8175
Rp8176
I1420825791
sg2
(g3
g4
(S'91.240.112.10'
p8177
I62493
tp8178
tp8179
Rp8180
I1420727151
sg2
(g3
g4
(S'88.152.8.35'
p8181
I8444
tp8182
tp8183
Rp8184
I1420727135
sg2
(g3
g4
(S'84.133.87.27'
p8185
I8444
tp8186
tp8187
Rp8188
I1420844292
sg2
(g3
g4
(S'199.58.81.144'
p8189
I8444
tp8190
tp8191
Rp8192
I1420729449
sg2
(g3
g4
(S'80.110.33.39'
p8193
I8444
tp8194
tp8195
Rp8196
I1420835879
sg2
(g3
g4
(S'190.92.77.90'
p8197
I8444
tp8198
tp8199
Rp8200
I1420840424
sg2
(g3
g4
(S'106.39.255.244'
p8201
I8444
tp8202
tp8203
Rp8204
I1420839658
sg2
(g3
g4
(S'2001:0:9d38:90d7:2c9c:da8:4f39:a412'
p8205
I8444
tp8206
tp8207
Rp8208
I1420824272
sg2
(g3
g4
(S'141.70.18.169'
p8209
I8444
tp8210
tp8211
Rp8212
I1421631049
sg2
(g3
g4
(S'2.93.88.232'
p8213
I8444
tp8214
tp8215
Rp8216
I1420831747
sg2
(g3
g4
(S'217.248.203.25'
p8217
I8444
tp8218
tp8219
Rp8220
I1420828486
sg2
(g3
g4
(S'95.91.206.188'
p8221
I8444
tp8222
tp8223
Rp8224
I1420760617
sg2
(g3
g4
(S'104.245.146.206'
p8225
I8444
tp8226
tp8227
Rp8228
I1421626033
sg2
(g3
g4
(S'217.80.17.202'
p8229
I8444
tp8230
tp8231
Rp8232
I1420835449
sg2
(g3
g4
(S'100.8.142.218'
p8233
I8444
tp8234
tp8235
Rp8236
I1421628171
sg2
(g3
g4
(S'46.4.248.21'
p8237
I8444
tp8238
tp8239
Rp8240
I1420731832
sg2
(g3
g4
(S'84.62.0.249'
p8241
I8444
tp8242
tp8243
Rp8244
I1420814859
sg2
(g3
g4
(S'120.149.90.100'
p8245
I8444
tp8246
tp8247
Rp8248
I1421626037
sg2
(g3
g4
(S'92.100.70.245'
p8249
I8444
tp8250
tp8251
Rp8252
I1420839478
sg2
(g3
g4
(S'77.174.152.91'
p8253
I8444
tp8254
tp8255
Rp8256
I1420835968
sg2
(g3
g4
(S'5.196.28.199'
p8257
I8444
tp8258
tp8259
Rp8260
I1420835520
sg2
(g3
g4
(S'80.110.107.184'
p8261
I8444
tp8262
tp8263
Rp8264
I1420844326
sg2
(g3
g4
(S'41.44.106.201'
p8265
I8444
tp8266
tp8267
Rp8268
I1420835021
sg2
(g3
g4
(S'184.75.212.162'
p8269
I8444
tp8270
tp8271
Rp8272
I1420835776
sg2
(g3
g4
(S'72.83.9.55'
p8273
I8444
tp8274
tp8275
Rp8276
I1420821721
sg2
(g3
g4
(S'87.142.40.126'
p8277
I8444
tp8278
tp8279
Rp8280
I1420757517
sg2
(g3
g4
(S'99.101.217.116'
p8281
I4333
tp8282
tp8283
Rp8284
I1420734793
sg2
(g3
g4
(S'78.94.41.42'
p8285
I8444
tp8286
tp8287
Rp8288
I1420827723
sg2
(g3
g4
(S'104.193.169.246'
p8289
I8444
tp8290
tp8291
Rp8292
I1420764678
sg2
(g3
g4
(S'91.240.112.10'
p8293
I51226
tp8294
tp8295
Rp8296
I1420736385
sg2
(g3
g4
(S'31.204.150.145'
p8297
I8444
tp8298
tp8299
Rp8300
I1420833959
sg2
(g3
g4
(S'69.164.211.28'
p8301
I8444
tp8302
tp8303
Rp8304
I1420833432
sg2
(g3
g4
(S'82.3.201.211'
p8305
I8444
tp8306
tp8307
Rp8308
I1420831668
sg2
(g3
g4
(S'79.117.7.230'
p8309
I8444
tp8310
tp8311
Rp8312
I1420841353
sg2
(g3
g4
(S'77.95.229.18'
p8313
I8123
tp8314
tp8315
Rp8316
I1420737948
sg2
(g3
g4
(S'79.151.228.92'
p8317
I8444
tp8318
tp8319
Rp8320
I1420840614
sg2
(g3
g4
(S'54.77.9.135'
p8321
I9006
tp8322
tp8323
Rp8324
I1420831047
sg2
(g3
g4
(S'78.43.154.1'
p8325
I8444
tp8326
tp8327
Rp8328
I1420837462
sg2
(g3
g4
(S'24.32.208.216'
p8329
I8444
tp8330
tp8331
Rp8332
I1420762837
sg2
(g3
g4
(S'96.245.117.72'
p8333
I8444
tp8334
tp8335
Rp8336
I1420841524
sg2
(g3
g4
(S'85.31.194.186'
p8337
I8444
tp8338
tp8339
Rp8340
I1420736646
sg2
(g3
g4
(S'24.3.238.159'
p8341
I8444
tp8342
tp8343
Rp8344
I1420760388
sg2
(g3
g4
(S'217.26.105.34'
p8345
I8444
tp8346
tp8347
Rp8348
I1420840408
sg2
(g3
g4
(S'2002:5f73:7f3a:0:7cb4:e888:5b43:b0f9'
p8349
I8444
tp8350
tp8351
Rp8352
I1420841602
sg2
(g3
g4
(S'5.18.227.15'
p8353
I8444
tp8354
tp8355
Rp8356
I1420840396
sg2
(g3
g4
(S'166.70.94.5'
p8357
I8444
tp8358
tp8359
Rp8360
I1420842507
sg2
(g3
g4
(S'218.212.133.121'
p8361
I8444
tp8362
tp8363
Rp8364
I1420842687
sg2
(g3
g4
(S'217.85.221.95'
p8365
I8444
tp8366
tp8367
Rp8368
I1420729498
sg2
(g3
g4
(S'109.90.83.31'
p8369
I8444
tp8370
tp8371
Rp8372
I1421631051
sg2
(g3
g4
(S'82.44.243.163'
p8373
I8444
tp8374
tp8375
Rp8376
I1420838503
sg2
(g3
g4
(S'85.102.65.114'
p8377
I8444
tp8378
tp8379
Rp8380
I1421621997
sg2
(g3
g4
(S'37.48.65.71'
p8381
I14748
tp8382
tp8383
Rp8384
I1420844190
sg2
(g3
g4
(S'180.191.80.16'
p8385
I8444
tp8386
tp8387
Rp8388
I1421628666
sg2
(g3
g4
(S'104.245.146.182'
p8389
I8444
tp8390
tp8391
Rp8392
I1420835419
sg2
(g3
g4
(S'184.174.130.180'
p8393
I8444
tp8394
tp8395
Rp8396
I1420727677
sg2
(g3
g4
(S'121.165.234.160'
p8397
I8444
tp8398
tp8399
Rp8400
I1421627113
sg2
(g3
g4
(S'94.99.57.193'
p8401
I8444
tp8402
tp8403
Rp8404
I1420839399
sg2
(g3
g4
(S'109.201.154.234'
p8405
I8444
tp8406
tp8407
Rp8408
I1421630634
sg2
(g3
g4
(S'94.176.185.193'
p8409
I8444
tp8410
tp8411
Rp8412
I1420838479
sg2
(g3
g4
(S'91.240.112.10'
p8413
I54486
tp8414
tp8415
Rp8416
I1420817099
sg2
(g3
g4
(S'46.246.47.203'
p8417
I8444
tp8418
tp8419
Rp8420
I1420839751
sg2
(g3
g4
(S'188.193.216.92'
p8421
I8444
tp8422
tp8423
Rp8424
I1420842455
sg2
(g3
g4
(S'162.219.179.124'
p8425
I8444
tp8426
tp8427
Rp8428
I1420824208
sg2
(g3
g4
(S'91.240.112.10'
p8429
I51530
tp8430
tp8431
Rp8432
I1420737215
sg2
(g3
g4
(S'109.120.148.60'
p8433
I8444
tp8434
tp8435
Rp8436
I1420727618
sg2
(g3
g4
(S'192.99.150.152'
p8437
I49938
tp8438
tp8439
Rp8440
I1420825804
sg2
(g3
g4
(S'91.240.112.10'
p8441
I56849
tp8442
tp8443
Rp8444
I1420826260
sg2
(g3
g4
(S'46.183.220.92'
p8445
I8444
tp8446
tp8447
Rp8448
I1420736356
sg2
(g3
g4
(S'213.172.102.19'
p8449
I8444
tp8450
tp8451
Rp8452
I1420840910
sg2
(g3
g4
(S'104.245.144.202'
p8453
I8444
tp8454
tp8455
Rp8456
I1420824154
sg2
(g3
g4
(S'84.44.154.113'
p8457
I8444
tp8458
tp8459
Rp8460
I1420824426
sg2
(g3
g4
(S'71.163.9.50'
p8461
I8444
tp8462
tp8463
Rp8464
I1420756308
sg2
(g3
g4
(S'62.165.17.204'
p8465
I8444
tp8466
tp8467
Rp8468
I1421624533
sg2
(g3
g4
(S'68.224.150.151'
p8469
I8444
tp8470
tp8471
Rp8472
I1421629124
sg2
(g3
g4
(S'68.50.10.12'
p8473
I8444
tp8474
tp8475
Rp8476
I1421622150
sg2
(g3
g4
(S'2601:6:5480:f28:95f0:a37f:7be5:127'
p8477
I8444
tp8478
tp8479
Rp8480
I1420834188
sg2
(g3
g4
(S'217.157.137.157'
p8481
I8444
tp8482
tp8483
Rp8484
I1420844222
sg2
(g3
g4
(S'92.203.131.205'
p8485
I8444
tp8486
tp8487
Rp8488
I1420821564
sg2
(g3
g4
(S'92.37.87.38'
p8489
I8444
tp8490
tp8491
Rp8492
I1420821488
sg2
(g3
g4
(S'23.94.43.76'
p8493
I8444
tp8494
tp8495
Rp8496
I1420836604
sg2
(g3
g4
(S'46.246.41.72'
p8497
I8444
tp8498
tp8499
Rp8500
I1420842633
sg2
(g3
g4
(S'188.40.23.93'
p8501
I8444
tp8502
tp8503
Rp8504
I1421624924
sg2
(g3
g4
(S'92.17.218.6'
p8505
I7777
tp8506
tp8507
Rp8508
I1420730880
sg2
(g3
g4
(S'89.244.234.250'
p8509
I8444
tp8510
tp8511
Rp8512
I1420736544
sg2
(g3
g4
(S'154.35.132.83'
p8513
I9002
tp8514
tp8515
Rp8516
I1420837507
sg2
(g3
g4
(S'104.245.146.150'
p8517
I8444
tp8518
tp8519
Rp8520
I1420843176
sg2
(g3
g4
(S'81.170.217.2'
p8521
I8444
tp8522
tp8523
Rp8524
I1421620998
sg2
(g3
g4
(S'82.192.241.30'
p8525
I8444
tp8526
tp8527
Rp8528
I1420842568
sg2
(g3
g4
(S'188.138.39.26'
p8529
I8444
tp8530
tp8531
Rp8532
I1420842886
sg2
(g3
g4
(S'2001:0:9d38:90d7:875:c0e2:4b01:2e0f'
p8533
I8444
tp8534
tp8535
Rp8536
I1420828451
sg2
(g3
g4
(S'178.5.6.247'
p8537
I8444
tp8538
tp8539
Rp8540
I1420737113
sg2
(g3
g4
(S'68.187.238.31'
p8541
I8444
tp8542
tp8543
Rp8544
I1420765917
sg2
(g3
g4
(S'91.240.112.10'
p8545
I50996
tp8546
tp8547
Rp8548
I1420735617
sg2
(g3
g4
(S'91.14.36.169'
p8549
I8444
tp8550
tp8551
Rp8552
I1420728699
sg2
(g3
g4
(S'178.155.183.79'
p8553
I8444
tp8554
tp8555
Rp8556
I1420841108
sg2
(g3
g4
(S'81.11.251.43'
p8557
I8444
tp8558
tp8559
Rp8560
I1421620470
sg2
(g3
g4
(S'81.187.204.215'
p8561
I8444
tp8562
tp8563
Rp8564
I1420837483
sg2
(g3
g4
(S'178.114.164.141'
p8565
I8444
tp8566
tp8567
Rp8568
I1420817441
sg2
(g3
g4
(S'2001:470:26:1a:ec71:a627:e4bf:6aad'
p8569
I8444
tp8570
tp8571
Rp8572
I1420842565
sg2
(g3
g4
(S'201.229.53.140'
p8573
I8444
tp8574
tp8575
Rp8576
I1420843450
sg2
(g3
g4
(S'2002:b89a:4cd4::b89a:4cd4'
p8577
I8444
tp8578
tp8579
Rp8580
I1421622815
sg2
(g3
g4
(S'87.243.154.32'
p8581
I8444
tp8582
tp8583
Rp8584
I1420842735
sg2
(g3
g4
(S'92.211.26.120'
p8585
I8444
tp8586
tp8587
Rp8588
I1420832039
sg2
(g3
g4
(S'189.248.17.30'
p8589
I8444
tp8590
tp8591
Rp8592
I1420837840
sg2
(g3
g4
(S'109.190.200.97'
p8593
I8444
tp8594
tp8595
Rp8596
I1420763371
sg2
(g3
g4
(S'184.154.76.212'
p8597
I8444
tp8598
tp8599
Rp8600
I1421625869
sg2
(g3
g4
(S'88.68.88.150'
p8601
I8444
tp8602
tp8603
Rp8604
I1421623638
sg2
(g3
g4
(S'85.171.174.131'
p8605
I8444
tp8606
tp8607
Rp8608
I1421625049
sg2
(g3
g4
(S'2001:0:9d38:90d7:1c3f:1b1b:da36:7c4d'
p8609
I8444
tp8610
tp8611
Rp8612
I1420832917
sg2
(g3
g4
(S'162.219.176.34'
p8613
I8444
tp8614
tp8615
Rp8616
I1420842430
sg2
(g3
g4
(S'2001:0:9d38:6ab8:8a2:7b65:86c9:c50e'
p8617
I8444
tp8618
tp8619
Rp8620
I1421623202
sg2
(g3
g4
(S'176.10.99.203'
p8621
I8444
tp8622
tp8623
Rp8624
I1420826787
sg2
(g3
g4
(S'162.253.128.164'
p8625
I8444
tp8626
tp8627
Rp8628
I1420840430
sg2
(g3
g4
(S'88.212.40.171'
p8629
I8444
tp8630
tp8631
Rp8632
I1420839231
sg2
(g3
g4
(S'166.171.185.41'
p8633
I8444
tp8634
tp8635
Rp8636
I1420727160
sg2
(g3
g4
(S'94.71.160.117'
p8637
I8444
tp8638
tp8639
Rp8640
I1420737616
sg2
(g3
g4
(S'2601:6:1e82:36a1:c1a5:ba97:be98:b0af'
p8641
I8444
tp8642
tp8643
Rp8644
I1420842648
sg2
(g3
g4
(S'54.77.254.23'
p8645
I8444
tp8646
tp8647
Rp8648
I1420761767
sg2
(g3
g4
(S'86.123.39.88'
p8649
I8444
tp8650
tp8651
Rp8652
I1421628366
sg2
(g3
g4
(S'184.75.214.138'
p8653
I58043
tp8654
tp8655
Rp8656
I1420842644
sg2
(g3
g4
(S'2001:0:53aa:64c:18b9:6a97:4357:3378'
p8657
I8444
tp8658
tp8659
Rp8660
I1420759588
sg2
(g3
g4
(S'207.12.89.10'
p8661
I8444
tp8662
tp8663
Rp8664
I1421620901
sg2
(g3
g4
(S'183.171.185.54'
p8665
I8444
tp8666
tp8667
Rp8668
I1420837229
sg2
(g3
g4
(S'212.227.38.247'
p8669
I8444
tp8670
tp8671
Rp8672
I1420843695
sg2
(g3
g4
(S'217.23.12.192'
p8673
I8444
tp8674
tp8675
Rp8676
I1420839533
sg2
(g3
g4
(S'95.79.96.95'
p8677
I8444
tp8678
tp8679
Rp8680
I1420843333
sg2
(g3
g4
(S'89.0.232.123'
p8681
I8444
tp8682
tp8683
Rp8684
I1420822767
sg2
(g3
g4
(S'184.75.211.149'
p8685
I8444
tp8686
tp8687
Rp8688
I1421625727
sg2
(g3
g4
(S'88.70.42.229'
p8689
I8444
tp8690
tp8691
Rp8692
I1420836955
sg2
(g3
g4
(S'96.32.120.154'
p8693
I8444
tp8694
tp8695
Rp8696
I1420838042
sg2
(g3
g4
(S'75.143.44.149'
p8697
I8444
tp8698
tp8699
Rp8700
I1420736196
sg2
(g3
g4
(S'2001:0:5ef5:79fb:823:2d76:b00a:5ca9'
p8701
I8444
tp8702
tp8703
Rp8704
I1420826709
sg2
(g3
g4
(S'183.99.124.116'
p8705
I8444
tp8706
tp8707
Rp8708
I1420765714
sg2
(g3
g4
(S'183.171.185.71'
p8709
I8444
tp8710
tp8711
Rp8712
I1420733481
sg2
(g3
g4
(S'183.128.166.122'
p8713
I8444
tp8714
tp8715
Rp8716
I1420841473
sg2
(g3
g4
(S'184.75.213.50'
p8717
I8444
tp8718
tp8719
Rp8720
I1420758062
sg2
(g3
g4
(S'79.218.147.126'
p8721
I8444
tp8722
tp8723
Rp8724
I1420841881
sg2
(g3
g4
(S'5.135.152.208'
p8725
I8444
tp8726
tp8727
Rp8728
I1420734627
sg2
(g3
g4
(S'65.112.10.134'
p8729
I8444
tp8730
tp8731
Rp8732
I1420835173
sg2
(g3
g4
(S'162.253.129.210'
p8733
I8444
tp8734
tp8735
Rp8736
I1420842493
sg2
(g3
g4
(S'50.139.42.35'
p8737
I8444
tp8738
tp8739
Rp8740
I1421626046
sg2
(g3
g4
(S'95.91.232.86'
p8741
I8444
tp8742
tp8743
Rp8744
I1420839053
sg2
(g3
g4
(S'50.88.82.90'
p8745
I8444
tp8746
tp8747
Rp8748
I1420766841
sg2
(g3
g4
(S'184.75.212.98'
p8749
I8444
tp8750
tp8751
Rp8752
I1420834247
sg2
(g3
g4
(S'178.62.154.250'
p8753
I8444
tp8754
tp8755
Rp8756
I1420842630
sg2
(g3
g4
(S'91.240.112.10'
p8757
I51670
tp8758
tp8759
Rp8760
I1420737752
sg2
(g3
g4
(S'93.202.73.205'
p8761
I4662
tp8762
tp8763
Rp8764
I1420734682
sg2
(g3
g4
(S'50.194.23.122'
p8765
I8444
tp8766
tp8767
Rp8768
I1421630231
sg2
(g3
g4
(S'91.240.112.10'
p8769
I64586
tp8770
tp8771
Rp8772
I1420727880
sg2
(g3
g4
(S'178.162.209.110'
p8773
I8444
tp8774
tp8775
Rp8776
I1420819837
sg2
(g3
g4
(S'91.121.169.33'
p8777
I8444
tp8778
tp8779
Rp8780
I1420832930
sg2
(g3
g4
(S'176.10.99.204'
p8781
I8444
tp8782
tp8783
Rp8784
I1420837174
sg2
(g3
g4
(S'93.214.173.204'
p8785
I8444
tp8786
tp8787
Rp8788
I1420815848
sg2
(g3
g4
(S'109.78.17.113'
p8789
I8444
tp8790
tp8791
Rp8792
I1421620270
sg2
(g3
g4
(S'212.21.66.6'
p8793
I443
tp8794
tp8795
Rp8796
I1420827034
sg2
(g3
g4
(S'108.225.124.47'
p8797
I8444
tp8798
tp8799
Rp8800
I1420756609
sg2
(g3
g4
(S'124.171.66.79'
p8801
I8444
tp8802
tp8803
Rp8804
I1420844090
sg2
(g3
g4
(S'77.6.187.230'
p8805
I8444
tp8806
tp8807
Rp8808
I1420837231
sg2
(g3
g4
(S'151.26.57.187'
p8809
I8444
tp8810
tp8811
Rp8812
I1420822361
sg2
(g3
g4
(S'68.10.194.227'
p8813
I8444
tp8814
tp8815
Rp8816
I1421626013
sg2
(g3
g4
(S'95.90.236.111'
p8817
I8444
tp8818
tp8819
Rp8820
I1420733531
sg2
(g3
g4
(S'81.95.119.29'
p8821
I8444
tp8822
tp8823
Rp8824
I1421621137
sg2
(g3
g4
(S'83.99.65.206'
p8825
I8444
tp8826
tp8827
Rp8828
I1420837398
sg2
(g3
g4
(S'2a01:7b8:2011:f0c9:71ff:d96e:f3a0:2100'
p8829
I8444
tp8830
tp8831
Rp8832
I1420839217
sg2
(g3
g4
(S'93.205.26.253'
p8833
I8444
tp8834
tp8835
Rp8836
I1420726656
sg2
(g3
g4
(S'67.212.85.10'
p8837
I8444
tp8838
tp8839
Rp8840
I1420841793
sg2
(g3
g4
(S'95.211.229.158'
p8841
I8080
tp8842
tp8843
Rp8844
I1420827234
sg2
(g3
g4
(S'162.219.176.50'
p8845
I8444
tp8846
tp8847
Rp8848
I1420833551
sg2
(g3
g4
(S'2001:0:9d38:6abd:49:2301:3c65:deb6'
p8849
I8444
tp8850
tp8851
Rp8852
I1420817821
sg2
(g3
g4
(S'99.34.3.91'
p8853
I8444
tp8854
tp8855
Rp8856
I1420840372
sg2
(g3
g4
(S'66.229.236.91'
p8857
I8444
tp8858
tp8859
Rp8860
I1421627799
sg2
(g3
g4
(S'151.229.3.3'
p8861
I8444
tp8862
tp8863
Rp8864
I1421630095
sg2
(g3
g4
(S'62.210.74.137'
p8865
I8080
tp8866
tp8867
Rp8868
I1421620981
sg2
(g3
g4
(S'178.85.193.206'
p8869
I8444
tp8870
tp8871
Rp8872
I1421629760
sg2
(g3
g4
(S'174.138.207.182'
p8873
I8444
tp8874
tp8875
Rp8876
I1420839520
sg2
(g3
g4
(S'178.217.187.39'
p8877
I9002
tp8878
tp8879
Rp8880
I1420831112
sg2
(g3
g4
(S'98.219.250.190'
p8881
I8444
tp8882
tp8883
Rp8884
I1420831676
sg2
(g3
g4
(S'2a02:8070:8681:7360:7dd0:ca21:1fb:d6cc'
p8885
I8444
tp8886
tp8887
Rp8888
I1420828551
sg2
(g3
g4
(S'46.182.106.190'
p8889
I443
tp8890
tp8891
Rp8892
I1420839105
sg2
(g3
g4
(S'77.95.229.11'
p8893
I8444
tp8894
tp8895
Rp8896
I1420839731
sg2
(g3
g4
(S'86.145.228.45'
p8897
I1195
tp8898
tp8899
Rp8900
I1421629252
sg2
(g3
g4
(S'37.201.131.178'
p8901
I8444
tp8902
tp8903
Rp8904
I1420837109
sg2
(g3
g4
(S'109.201.152.7'
p8905
I8444
tp8906
tp8907
Rp8908
I1420827265
sg2
(g3
g4
(S'162.219.178.106'
p8909
I8444
tp8910
tp8911
Rp8912
I1420825825
sg2
(g3
g4
(S'134.3.156.137'
p8913
I8444
tp8914
tp8915
Rp8916
I1420727776
sg2
(g3
g4
(S'2a02:810d:280:c90:ddf6:8002:6266:5e55'
p8917
I8444
tp8918
tp8919
Rp8920
I1420842573
sg2
(g3
g4
(S'84.132.120.89'
p8921
I8444
tp8922
tp8923
Rp8924
I1420825240
sg2
(g3
g4
(S'70.74.163.14'
p8925
I8444
tp8926
tp8927
Rp8928
I1420842021
sg2
(g3
g4
(S'95.112.212.131'
p8929
I8444
tp8930
tp8931
Rp8932
I1420819644
sg2
(g3
g4
(S'73.190.92.206'
p8933
I8444
tp8934
tp8935
Rp8936
I1420839071
sg2
(g3
g4
(S'2001:1af8:4010:a08c:1::6e'
p8937
I8444
tp8938
tp8939
Rp8940
I1420824965
sg2
(g3
g4
(S'184.75.211.236'
p8941
I8444
tp8942
tp8943
Rp8944
I1420826014
sg2
(g3
g4
(S'62.141.240.32'
p8945
I8444
tp8946
tp8947
Rp8948
I1421625723
sg2
(g3
g4
(S'176.10.99.205'
p8949
I8444
tp8950
tp8951
Rp8952
I1420735836
sg2
(g3
g4
(S'37.187.239.191'
p8953
I443
tp8954
tp8955
Rp8956
I1420827010
sg2
(g3
g4
(S'92.229.101.35'
p8957
I8444
tp8958
tp8959
Rp8960
I1420826017
sg2
(g3
g4
(S'95.211.197.1'
p8961
I8444
tp8962
tp8963
Rp8964
I1420726927
sg2
(g3
g4
(S'199.254.238.185'
p8965
I8444
tp8966
tp8967
Rp8968
I1420844485
sg2
(g3
g4
(S'2002:b8ae:85ba:1:64b:80ff:fe80:8010'
p8969
I28355
tp8970
tp8971
Rp8972
I1421621298
sg2
(g3
g4
(S'190.134.85.165'
p8973
I8444
tp8974
tp8975
Rp8976
I1420832048
sg2
(g3
g4
(S'139.193.109.144'
p8977
I8444
tp8978
tp8979
Rp8980
I1420761315
sg2
(g3
g4
(S'46.182.106.190'
p8981
I8444
tp8982
tp8983
Rp8984
I1420840529
sg2
(g3
g4
(S'83.135.33.167'
p8985
I8444
tp8986
tp8987
Rp8988
I1420836284
sg2
(g3
g4
(S'54.172.201.41'
p8989
I8444
tp8990
tp8991
Rp8992
I1420835179
sg2
(g3
g4
(S'24.252.217.29'
p8993
I8444
tp8994
tp8995
Rp8996
I1420835876
sg2
(g3
g4
(S'162.253.131.202'
p8997
I8444
tp8998
tp8999
Rp9000
I1420835731
sg2
(g3
g4
(S'87.211.34.4'
p9001
I8444
tp9002
tp9003
Rp9004
I1420826591
sg2
(g3
g4
(S'91.240.112.10'
p9005
I56892
tp9006
tp9007
Rp9008
I1420826365
sg2
(g3
g4
(S'46.21.99.26'
p9009
I14748
tp9010
tp9011
Rp9012
I1420818101
sg2
(g3
g4
(S'176.10.116.118'
p9013
I8444
tp9014
tp9015
Rp9016
I1421622941
sg2
(g3
g4
(S'118.210.228.204'
p9017
I51101
tp9018
tp9019
Rp9020
I1420841113
sg2
(g3
g4
(S'77.247.224.33'
p9021
I443
tp9022
tp9023
Rp9024
I1420843607
sg2
(g3
g4
(S'77.95.229.16'
p9025
I8444
tp9026
tp9027
Rp9028
I1420821620
sg2
(g3
g4
(S'62.210.74.143'
p9029
I8080
tp9030
tp9031
Rp9032
I1420824369
sg2
(g3
g4
(S'2a02:120b:2c68:89b0:2c44:21f0:592f:86ca'
p9033
I8444
tp9034
tp9035
Rp9036
I1420839049
sg2
(g3
g4
(S'106.39.255.136'
p9037
I8444
tp9038
tp9039
Rp9040
I1420825790
sg2
(g3
g4
(S'37.48.65.176'
p9041
I8444
tp9042
tp9043
Rp9044
I1420736637
sg2
(g3
g4
(S'91.240.112.10'
p9045
I51609
tp9046
tp9047
Rp9048
I1420737301
sg2
(g3
g4
(S'94.134.222.74'
p9049
I8444
tp9050
tp9051
Rp9052
I1420828423
sg2
(g3
g4
(S'84.158.169.36'
p9053
I8444
tp9054
tp9055
Rp9056
I1420826387
sg2
(g3
g4
(S'96.44.189.102'
p9057
I8080
tp9058
tp9059
Rp9060
I1420825780
sg2
(g3
g4
(S'73.163.160.12'
p9061
I8444
tp9062
tp9063
Rp9064
I1420840674
sg2
(g3
g4
(S'50.190.206.111'
p9065
I8444
tp9066
tp9067
Rp9068
I1420840541
sg2
(g3
g4
(S'188.192.126.157'
p9069
I8444
tp9070
tp9071
Rp9072
I1421629889
sg2
(g3
g4
(S'146.52.39.23'
p9073
I8444
tp9074
tp9075
Rp9076
I1420841154
sg2
(g3
g4
(S'95.211.229.158'
p9077
I443
tp9078
tp9079
Rp9080
I1420828024
sg2
(g3
g4
(S'87.177.118.182'
p9081
I8444
tp9082
tp9083
Rp9084
I1420838485
sg2
(g3
g4
(S'109.201.154.155'
p9085
I8444
tp9086
tp9087
Rp9088
I1420815484
sg2
(g3
g4
(S'46.41.69.19'
p9089
I8444
tp9090
tp9091
Rp9092
I1420843341
sg2
(g3
g4
(S'162.253.129.114'
p9093
I8444
tp9094
tp9095
Rp9096
I1420842452
sg2
(g3
g4
(S'167.88.40.152'
p9097
I6881
tp9098
tp9099
Rp9100
I1420840327
sg2
(g3
g4
(S'2001:1640:4:21:882:135b:24df:c03c'
p9101
I8444
tp9102
tp9103
Rp9104
I1420832543
sg2
(g3
g4
(S'173.226.81.45'
p9105
I8444
tp9106
tp9107
Rp9108
I1420829242
sg2
(g3
g4
(S'107.3.129.74'
p9109
I8444
tp9110
tp9111
Rp9112
I1420734468
sg2
(g3
g4
(S'176.126.252.12'
p9113
I6881
tp9114
tp9115
Rp9116
I1420840329
sg2
(g3
g4
(S'171.25.193.235'
p9117
I9150
tp9118
tp9119
Rp9120
I1420735765
sg2
(g3
g4
(S'5.35.44.29'
p9121
I8444
tp9122
tp9123
Rp9124
I1420837470
sg2
(g3
g4
(S'2003:4c:6c4c:3001:74ea:3c96:1d99:7add'
p9125
I8444
tp9126
tp9127
Rp9128
I1420734791
sg2
(g3
g4
(S'2.242.111.220'
p9129
I8444
tp9130
tp9131
Rp9132
I1420736258
sg2
(g3
g4
(S'176.126.252.12'
p9133
I9150
tp9134
tp9135
Rp9136
I1420833368
sg2
(g3
g4
(S'84.228.159.75'
p9137
I8444
tp9138
tp9139
Rp9140
I1420818274
sg2
(g3
g4
(S'216.49.233.184'
p9141
I8444
tp9142
tp9143
Rp9144
I1420762632
sg2
(g3
g4
(S'91.96.162.168'
p9145
I8444
tp9146
tp9147
Rp9148
I1420834671
sg2
(g3
g4
(S'208.81.194.57'
p9149
I8444
tp9150
tp9151
Rp9152
I1420841790
sg2
(g3
g4
(S'71.180.53.83'
p9153
I8069
tp9154
tp9155
Rp9156
I1420838805
sg2
(g3
g4
(S'2002:5f6f:d591::5f6f:d591'
p9157
I8444
tp9158
tp9159
Rp9160
I1420729998
sg2
(g3
g4
(S'79.163.244.42'
p9161
I8444
tp9162
tp9163
Rp9164
I1420841642
sg2
(g3
g4
(S'197.118.144.235'
p9165
I8444
tp9166
tp9167
Rp9168
I1420817456
sg2
(g3
g4
(S'208.54.38.147'
p9169
I8444
tp9170
tp9171
Rp9172
I1420766735
sg2
(g3
g4
(S'71.237.63.178'
p9173
I8444
tp9174
tp9175
Rp9176
I1420728237
sg2
(g3
g4
(S'41.104.44.220'
p9177
I8444
tp9178
tp9179
Rp9180
I1420827890
sg2
(g3
g4
(S'76.101.151.252'
p9181
I8444
tp9182
tp9183
Rp9184
I1420837978
sg2
(g3
g4
(S'188.106.176.170'
p9185
I8444
tp9186
tp9187
Rp9188
I1420832488
sg2
(g3
g4
(S'91.240.112.10'
p9189
I49914
tp9190
tp9191
Rp9192
I1420817263
sg2
(g3
g4
(S'79.134.195.9'
p9193
I8444
tp9194
tp9195
Rp9196
I1420727608
sg2
(g3
g4
(S'94.254.51.213'
p9197
I8444
tp9198
tp9199
Rp9200
I1420730487
sg2
(g3
g4
(S'142.21.254.73'
p9201
I8444
tp9202
tp9203
Rp9204
I1420729022
sg2
(g3
g4
(S'162.247.73.206'
p9205
I8444
tp9206
tp9207
Rp9208
I1420837444
sg2
(g3
g4
(S'104.232.3.35'
p9209
I9002
tp9210
tp9211
Rp9212
I1420841815
sg2
(g3
g4
(S'88.83.173.187'
p9213
I8444
tp9214
tp9215
Rp9216
I1420842509
sg2
(g3
g4
(S'162.243.121.22'
p9217
I8444
tp9218
tp9219
Rp9220
I1421629703
sg2
(g3
g4
(S'176.126.252.12'
p9221
I8080
tp9222
tp9223
Rp9224
I1420823416
sg2
(g3
g4
(S'74.105.124.132'
p9225
I8444
tp9226
tp9227
Rp9228
I1420765772
sg2
(g3
g4
(S'91.240.112.10'
p9229
I56765
tp9230
tp9231
Rp9232
I1420826151
sg2
(g3
g4
(S'109.201.152.9'
p9233
I8444
tp9234
tp9235
Rp9236
I1421621224
sg2
(g3
g4
(S'2601:3:8180:efb5:544c:1d6:ff17:3ab7'
p9237
I8444
tp9238
tp9239
Rp9240
I1420822811
sg2
(g3
g4
(S'188.114.37.129'
p9241
I8444
tp9242
tp9243
Rp9244
I1420837044
sg2
(g3
g4
(S'137.63.74.178'
p9245
I8446
tp9246
tp9247
Rp9248
I1420736391
sg2
(g3
g4
(S'118.98.221.69'
p9249
I8444
tp9250
tp9251
Rp9252
I1421622565
sg2
(g3
g4
(S'50.199.1.178'
p9253
I8444
tp9254
tp9255
Rp9256
I1420828105
sg2
(g3
g4
(S'217.209.149.168'
p9257
I8445
tp9258
tp9259
Rp9260
I1420836155
sg2
(g3
g4
(S'98.23.113.210'
p9261
I8444
tp9262
tp9263
Rp9264
I1421622850
sg2
(g3
g4
(S'87.106.217.36'
p9265
I8444
tp9266
tp9267
Rp9268
I1420839120
sg2
(g3
g4
(S'88.252.155.255'
p9269
I8444
tp9270
tp9271
Rp9272
I1420838859
sg2
(g3
g4
(S'5.196.0.123'
p9273
I9002
tp9274
tp9275
Rp9276
I1420733591
sg2
(g3
g4
(S'92.112.194.132'
p9277
I8444
tp9278
tp9279
Rp9280
I1420759833
sg2
(g3
g4
(S'84.132.104.241'
p9281
I8444
tp9282
tp9283
Rp9284
I1420728551
sg2
(g3
g4
(S'2.50.126.54'
p9285
I8444
tp9286
tp9287
Rp9288
I1420725938
sg2
(g3
g4
(S'95.215.48.251'
p9289
I8444
tp9290
tp9291
Rp9292
I1420827431
sg2
(g3
g4
(S'84.117.86.174'
p9293
I8444
tp9294
tp9295
Rp9296
I1420727851
sg2
(g3
g4
(S'217.230.0.231'
p9297
I8444
tp9298
tp9299
Rp9300
I1421629986
sg2
(g3
g4
(S'162.219.176.18'
p9301
I8444
tp9302
tp9303
Rp9304
I1420837991
sg2
(g3
g4
(S'80.99.33.106'
p9305
I8444
tp9306
tp9307
Rp9308
I1420829802
sg2
(g3
g4
(S'184.75.213.42'
p9309
I8446
tp9310
tp9311
Rp9312
I1420831475
sg2
(g3
g4
(S'91.14.77.91'
p9313
I8444
tp9314
tp9315
Rp9316
I1420728269
sg2
(g3
g4
(S'162.219.178.154'
p9317
I8444
tp9318
tp9319
Rp9320
I1420766677
sg2
(g3
g4
(S'62.76.12.202'
p9321
I8444
tp9322
tp9323
Rp9324
I1420839103
sg2
(g3
g4
(S'36.81.95.120'
p9325
I8444
tp9326
tp9327
Rp9328
I1420763462
sg2
(g3
g4
(S'79.228.253.199'
p9329
I8444
tp9330
tp9331
Rp9332
I1420840403
sg2
(g3
g4
(S'2001:888:113b::'
p9333
I8444
tp9334
tp9335
Rp9336
I1420834347
sg2
(g3
g4
(S'213.202.191.190'
p9337
I8444
tp9338
tp9339
Rp9340
I1420838477
sg2
(g3
g4
(S'188.17.193.190'
p9341
I8444
tp9342
tp9343
Rp9344
I1420818128
sg2
(g3
g4
(S'95.88.36.32'
p9345
I8444
tp9346
tp9347
Rp9348
I1420837420
sg2
(g3
g4
(S'70.26.137.160'
p9349
I8444
tp9350
tp9351
Rp9352
I1421624555
sg2
(g3
g4
(S'89.31.118.250'
p9353
I8444
tp9354
tp9355
Rp9356
I1420732852
sg2
(g3
g4
(S'2a02:8070:e183:fc00:ddfd:39ca:3c47:917'
p9357
I8444
tp9358
tp9359
Rp9360
I1420760654
sg2
(g3
g4
(S'83.163.110.251'
p9361
I8444
tp9362
tp9363
Rp9364
I1421620126
sg2
(g3
g4
(S'2601:1:c100:8500:6900:e821:8ebf:604f'
p9365
I8444
tp9366
tp9367
Rp9368
I1420839544
sg2
(g3
g4
(S'104.245.146.14'
p9369
I8444
tp9370
tp9371
Rp9372
I1420840735
sg2
(g3
g4
(S'77.51.67.142'
p9373
I8445
tp9374
tp9375
Rp9376
I1420734778
sg2
(g3
g4
(S'77.95.229.19'
p9377
I9150
tp9378
tp9379
Rp9380
I1420840765
sg2
(g3
g4
(S'77.10.184.114'
p9381
I8444
tp9382
tp9383
Rp9384
I1420836076
sg2
(g3
g4
(S'95.211.169.35'
p9385
I8444
tp9386
tp9387
Rp9388
I1420833562
sg2
(g3
g4
(S'194.96.23.56'
p9389
I8444
tp9390
tp9391
Rp9392
I1420732326
sg2
(g3
g4
(S'94.219.10.89'
p9393
I8444
tp9394
tp9395
Rp9396
I1420735144
sg2
(g3
g4
(S'37.52.119.199'
p9397
I8444
tp9398
tp9399
Rp9400
I1420840594
sg2
(g3
g4
(S'62.106.104.101'
p9401
I8444
tp9402
tp9403
Rp9404
I1420833572
sg2
(g3
g4
(S'81.169.159.82'
p9405
I8444
tp9406
tp9407
Rp9408
I1420843697
sg2
(g3
g4
(S'146.90.71.209'
p9409
I8444
tp9410
tp9411
Rp9412
I1421629746
sg2
(g3
g4
(S'37.139.31.129'
p9413
I9150
tp9414
tp9415
Rp9416
I1420840798
sg2
(g3
g4
(S'5.147.196.54'
p9417
I8444
tp9418
tp9419
Rp9420
I1420830552
sg2
(g3
g4
(S'90.156.97.126'
p9421
I8444
tp9422
tp9423
Rp9424
I1420824802
sg2
(g3
g4
(S'162.253.130.146'
p9425
I8444
tp9426
tp9427
Rp9428
I1420840329
sg2
(g3
g4
(S'104.245.146.8'
p9429
I8444
tp9430
tp9431
Rp9432
I1420842443
sg2
(g3
g4
(S'210.23.2.30'
p9433
I8444
tp9434
tp9435
Rp9436
I1420830431
sg2
(g3
g4
(S'82.21.134.145'
p9437
I8444
tp9438
tp9439
Rp9440
I1420733925
sg2
(g3
g4
(S'85.90.193.227'
p9441
I31002
tp9442
tp9443
Rp9444
I1420833464
sg2
(g3
g4
(S'1.34.219.47'
p9445
I8444
tp9446
tp9447
Rp9448
I1420837890
sg2
(g3
g4
(S'199.195.193.148'
p9449
I8444
tp9450
tp9451
Rp9452
I1420838285
sg2
(g3
g4
(S'178.125.207.104'
p9453
I8444
tp9454
tp9455
Rp9456
I1420830952
sg2
(g3
g4
(S'108.241.58.211'
p9457
I8444
tp9458
tp9459
Rp9460
I1421630087
sg2
(g3
g4
(S'176.126.252.12'
p9461
I8445
tp9462
tp9463
Rp9464
I1420819323
sg2
(g3
g4
(S'178.82.24.195'
p9465
I8444
tp9466
tp9467
Rp9468
I1420842447
sg2
(g3
g4
(S'37.241.99.225'
p9469
I8444
tp9470
tp9471
Rp9472
I1420828312
sg2
(g3
g4
(S'82.79.231.154'
p9473
I8444
tp9474
tp9475
Rp9476
I1420734283
sg2
(g3
g4
(S'37.48.81.46'
p9477
I23120
tp9478
tp9479
Rp9480
I1420818378
sg2
(g3
g4
(S'46.11.78.238'
p9481
I8444
tp9482
tp9483
Rp9484
I1420737757
sg2
(g3
g4
(S'132.239.185.176'
p9485
I8444
tp9486
tp9487
Rp9488
I1420838378
sg2
(g3
g4
(S'31.204.150.117'
p9489
I8444
tp9490
tp9491
Rp9492
I1420843386
sg2
(g3
g4
(S'93.189.2.18'
p9493
I52166
tp9494
tp9495
Rp9496
I1421627494
sg2
(g3
g4
(S'195.62.15.242'
p9497
I8444
tp9498
tp9499
Rp9500
I1421621239
sg2
(g3
g4
(S'79.255.59.213'
p9501
I8444
tp9502
tp9503
Rp9504
I1421630778
sg2
(g3
g4
(S'31.179.248.8'
p9505
I8444
tp9506
tp9507
Rp9508
I1421621164
sg2
(g3
g4
(S'87.14.247.109'
p9509
I8444
tp9510
tp9511
Rp9512
I1420736320
sg2
(g3
g4
(S'95.188.77.111'
p9513
I8444
tp9514
tp9515
Rp9516
I1420727540
sg2
(g3
g4
(S'79.97.124.99'
p9517
I8444
tp9518
tp9519
Rp9520
I1420835663
sg2
(g3
g4
(S'77.95.229.23'
p9521
I9004
tp9522
tp9523
Rp9524
I1421625418
sg2
(g3
g4
(S'62.163.212.157'
p9525
I8444
tp9526
tp9527
Rp9528
I1421625812
sg2
(g3
g4
(S'178.205.20.115'
p9529
I8444
tp9530
tp9531
Rp9532
I1420822819
sg2
(g3
g4
(S'78.53.102.63'
p9533
I8444
tp9534
tp9535
Rp9536
I1421624013
sg2
(g3
g4
(S'96.44.189.101'
p9537
I8444
tp9538
tp9539
Rp9540
I1421625912
sg2
(g3
g4
(S'74.129.145.166'
p9541
I8444
tp9542
tp9543
Rp9544
I1420842598
sg2
(g3
g4
(S'195.154.12.241'
p9545
I8444
tp9546
tp9547
Rp9548
I1421629171
sg2
(g3
g4
(S'95.90.228.139'
p9549
I8444
tp9550
tp9551
Rp9552
I1420734525
sg2
(g3
g4
(S'91.121.159.196'
p9553
I8080
tp9554
tp9555
Rp9556
I1420822461
sg2
(g3
g4
(S'89.75.52.238'
p9557
I8444
tp9558
tp9559
Rp9560
I1420833008
sg2
(g3
g4
(S'95.211.148.154'
p9561
I8444
tp9562
tp9563
Rp9564
I1420844674
sg2
(g3
g4
(S'68.194.138.105'
p9565
I8444
tp9566
tp9567
Rp9568
I1421631025
sg2
(g3
g4
(S'2a01:7e00::f03c:91ff:fe50:f1af'
p9569
I8444
tp9570
tp9571
Rp9572
I1420840151
sg2
(g3
g4
(S'93.217.133.51'
p9573
I8444
tp9574
tp9575
Rp9576
I1420837418
sg2
(g3
g4
(S'128.119.40.196'
p9577
I8444
tp9578
tp9579
Rp9580
I1420737908
sg2
(g3
g4
(S'151.19.80.130'
p9581
I8444
tp9582
tp9583
Rp9584
I1420824888
sg2
(g3
g4
(S'104.245.145.90'
p9585
I8444
tp9586
tp9587
Rp9588
I1420759619
sg2
(g3
g4
(S'62.210.74.186'
p9589
I26763
tp9590
tp9591
Rp9592
I1420838985
sg2
(g3
g4
(S'217.248.189.22'
p9593
I8444
tp9594
tp9595
Rp9596
I1420731239
sg2
(g3
g4
(S'2002:2ea4:e3d6::2ea4:e3d6'
p9597
I8444
tp9598
tp9599
Rp9600
I1420727326
sg2
(g3
g4
(S'79.176.41.188'
p9601
I8444
tp9602
tp9603
Rp9604
I1420731306
sg2
(g3
g4
(S'50.101.174.212'
p9605
I8444
tp9606
tp9607
Rp9608
I1420828310
sg2
(g3
g4
(S'41.248.167.176'
p9609
I8444
tp9610
tp9611
Rp9612
I1420760151
sg2
(g3
g4
(S'109.173.30.254'
p9613
I9003
tp9614
tp9615
Rp9616
I1420737019
sg2
(g3
g4
(S'5.166.162.218'
p9617
I0
tp9618
tp9619
Rp9620
I1420761605
sg2
(g3
g4
(S'178.20.55.18'
p9621
I8444
tp9622
tp9623
Rp9624
I1420758754
sg2
(g3
g4
(S'141.30.207.80'
p9625
I8444
tp9626
tp9627
Rp9628
I1420829097
sg2
(g3
g4
(S'31.134.58.183'
p9629
I8444
tp9630
tp9631
Rp9632
I1420814329
sg2
(g3
g4
(S'95.130.15.98'
p9633
I8444
tp9634
tp9635
Rp9636
I1420841127
sg2
(g3
g4
(S'2a02:810b:8500:8b8:85e:c352:8033:f0ed'
p9637
I8444
tp9638
tp9639
Rp9640
I1420734536
sg2
(g3
g4
(S'96.44.189.102'
p9641
I8444
tp9642
tp9643
Rp9644
I1420841135
sg2
(g3
g4
(S'194.150.168.95'
p9645
I6881
tp9646
tp9647
Rp9648
I1420844699
sg2
(g3
g4
(S'82.165.137.178'
p9649
I8080
tp9650
tp9651
Rp9652
I1420760056
sg2
(g3
g4
(S'72.65.254.13'
p9653
I8444
tp9654
tp9655
Rp9656
I1421630311
sg2
(g3
g4
(S'178.126.207.96'
p9657
I8444
tp9658
tp9659
Rp9660
I1420833196
sg2
(g3
g4
(S'184.176.197.2'
p9661
I8444
tp9662
tp9663
Rp9664
I1420843310
sg2
(g3
g4
(S'46.166.186.218'
p9665
I8444
tp9666
tp9667
Rp9668
I1420840396
sg2
(g3
g4
(S'37.24.149.212'
p9669
I8444
tp9670
tp9671
Rp9672
I1421629859
sg2
(g3
g4
(S'87.207.107.196'
p9673
I8444
tp9674
tp9675
Rp9676
I1420729107
sg2
(g3
g4
(S'128.52.128.105'
p9677
I26763
tp9678
tp9679
Rp9680
I1420838805
sg2
(g3
g4
(S'77.9.158.191'
p9681
I8444
tp9682
tp9683
Rp9684
I1420757001
sg2
(g3
g4
(S'91.6.217.176'
p9685
I8444
tp9686
tp9687
Rp9688
I1420840402
sg2
(g3
g4
(S'171.25.193.78'
p9689
I8444
tp9690
tp9691
Rp9692
I1420758603
sg2
(g3
g4
(S'91.240.112.10'
p9693
I64649
tp9694
tp9695
Rp9696
I1420727968
sg2
(g3
g4
(S'178.73.222.133'
p9697
I8444
tp9698
tp9699
Rp9700
I1420727709
sg2
(g3
g4
(S'46.5.2.74'
p9701
I8444
tp9702
tp9703
Rp9704
I1420736728
sg2
(g3
g4
(S'195.154.33.73'
p9705
I8444
tp9706
tp9707
Rp9708
I1420837114
sg2
(g3
g4
(S'80.122.14.76'
p9709
I8444
tp9710
tp9711
Rp9712
I1420724709
sg2
(g3
g4
(S'2001:a60:127c:c401:e5d9:7f15:4e21:7fec'
p9713
I8444
tp9714
tp9715
Rp9716
I1420831123
sg2
(g3
g4
(S'77.95.229.20'
p9717
I8444
tp9718
tp9719
Rp9720
I1421623819
sg2
(g3
g4
(S'95.63.248.242'
p9721
I8444
tp9722
tp9723
Rp9724
I1420837634
sg2
(g3
g4
(S'67.171.44.188'
p9725
I9302
tp9726
tp9727
Rp9728
I1420737808
sg2
(g3
g4
(S'77.51.37.78'
p9729
I8444
tp9730
tp9731
Rp9732
I1420726850
sg2
(g3
g4
(S'178.116.22.31'
p9733
I8444
tp9734
tp9735
Rp9736
I1421624820
sg2
(g3
g4
(S'95.141.27.47'
p9737
I10483
tp9738
tp9739
Rp9740
I1420816918
sg2
(g3
g4
(S'91.23.69.6'
p9741
I8444
tp9742
tp9743
Rp9744
I1420824034
sg2
(g3
g4
(S'104.245.145.122'
p9745
I8444
tp9746
tp9747
Rp9748
I1420840732
sg2
(g3
g4
(S'108.32.35.160'
p9749
I8444
tp9750
tp9751
Rp9752
I1420834747
sg2
(g3
g4
(S'41.249.179.232'
p9753
I8444
tp9754
tp9755
Rp9756
I1420835009
sg2
(g3
g4
(S'109.74.151.149'
p9757
I8444
tp9758
tp9759
Rp9760
I1420844320
sg2
(g3
g4
(S'83.253.138.44'
p9761
I8444
tp9762
tp9763
Rp9764
I1420842606
sg2
(g3
g4
(S'94.126.178.1'
p9765
I8123
tp9766
tp9767
Rp9768
I1420737949
sg2
(g3
g4
(S'86.148.89.74'
p9769
I8444
tp9770
tp9771
Rp9772
I1420838670
sg2
(g3
g4
(S'183.171.185.88'
p9773
I8445
tp9774
tp9775
Rp9776
I1420842262
sg2
(g3
g4
(S'95.130.15.97'
p9777
I9150
tp9778
tp9779
Rp9780
I1420814263
sg2
(g3
g4
(S'2a01:1b8:3:3::206:0'
p9781
I8444
tp9782
tp9783
Rp9784
I1420834318
sg2
(g3
g4
(S'184.75.223.234'
p9785
I8444
tp9786
tp9787
Rp9788
I1420825770
sg2
(g3
g4
(S'107.155.108.37'
p9789
I8444
tp9790
tp9791
Rp9792
I1421622083
sg2
(g3
g4
(S'98.195.23.156'
p9793
I8444
tp9794
tp9795
Rp9796
I1420844064
sg2
(g3
g4
(S'192.99.150.152'
p9797
I49671
tp9798
tp9799
Rp9800
I1420825591
sg2
(g3
g4
(S'188.187.12.0'
p9801
I8444
tp9802
tp9803
Rp9804
I1420840381
sg2
(g3
g4
(S'91.240.112.10'
p9805
I56260
tp9806
tp9807
Rp9808
I1420824647
sg2
(g3
g4
(S'184.75.214.82'
p9809
I8444
tp9810
tp9811
Rp9812
I1420821882
sg2
(g3
g4
(S'85.93.239.252'
p9813
I8444
tp9814
tp9815
Rp9816
I1420835186
sg2
(g3
g4
(S'5.196.178.73'
p9817
I8444
tp9818
tp9819
Rp9820
I1420839757
sg2
(g3
g4
(S'109.167.11.149'
p9821
I8444
tp9822
tp9823
Rp9824
I1420818919
sg2
(g3
g4
(S'37.209.73.6'
p9825
I8444
tp9826
tp9827
Rp9828
I1420841275
sg2
(g3
g4
(S'171.25.193.20'
p9829
I9150
tp9830
tp9831
Rp9832
I1421630655
sg2
(g3
g4
(S'76.92.234.230'
p9833
I8444
tp9834
tp9835
Rp9836
I1420841144
sg2
(g3
g4
(S'137.63.71.202'
p9837
I8444
tp9838
tp9839
Rp9840
I1420837768
sg2
(g3
g4
(S'2601:b:c700:785:99af:1a7d:62cf:de9'
p9841
I8444
tp9842
tp9843
Rp9844
I1420829898
sg2
(g3
g4
(S'183.171.185.59'
p9845
I8444
tp9846
tp9847
Rp9848
I1420844594
sg2
(g3
g4
(S'104.245.146.4'
p9849
I8444
tp9850
tp9851
Rp9852
I1420842429
sg2
(g3
g4
(S'82.45.88.232'
p9853
I8444
tp9854
tp9855
Rp9856
I1420736671
sg2
(g3
g4
(S'87.223.228.177'
p9857
I8444
tp9858
tp9859
Rp9860
I1420834179
sg2
(g3
g4
(S'94.218.65.79'
p9861
I8444
tp9862
tp9863
Rp9864
I1420737839
sg2
(g3
g4
(S'209.159.138.19'
p9865
I8080
tp9866
tp9867
Rp9868
I1421625540
sg2
(g3
g4
(S'66.189.14.216'
p9869
I8444
tp9870
tp9871
Rp9872
I1420818376
sg2
(g3
g4
(S'91.240.112.10'
p9873
I51023
tp9874
tp9875
Rp9876
I1420735625
sg2
(g3
g4
(S'192.42.116.16'
p9877
I8444
tp9878
tp9879
Rp9880
I1421621785
sg2
(g3
g4
(S'78.194.14.217'
p9881
I8444
tp9882
tp9883
Rp9884
I1420840651
sg2
(g3
g4
(S'68.195.5.109'
p9885
I8444
tp9886
tp9887
Rp9888
I1420760594
sg2
(g3
g4
(S'77.247.181.163'
p9889
I9150
tp9890
tp9891
Rp9892
I1420762792
sg2
(g3
g4
(S'204.8.156.142'
p9893
I9002
tp9894
tp9895
Rp9896
I1420733193
sg2
(g3
g4
(S'84.73.176.189'
p9897
I8444
tp9898
tp9899
Rp9900
I1420840422
sg2
(g3
g4
(S'207.201.223.195'
p9901
I9154
tp9902
tp9903
Rp9904
I1420729457
sg2
(g3
g4
(S'88.65.219.41'
p9905
I8444
tp9906
tp9907
Rp9908
I1420729143
sg2
(g3
g4
(S'2001:0:c38c:c38c:1840:2ea1:4f3d:e287'
p9909
I8444
tp9910
tp9911
Rp9912
I1420824816
sg2
(g3
g4
(S'213.112.115.142'
p9913
I8444
tp9914
tp9915
Rp9916
I1420845092
sg2
(g3
g4
(S'46.165.221.166'
p9917
I8444
tp9918
tp9919
Rp9920
I1420843476
sg2
(g3
g4
(S'87.78.238.230'
p9921
I8444
tp9922
tp9923
Rp9924
I1420816867
sg2
(g3
g4
(S'46.127.240.208'
p9925
I8444
tp9926
tp9927
Rp9928
I1420736531
sg2
(g3
g4
(S'109.201.154.202'
p9929
I8444
tp9930
tp9931
Rp9932
I1420827262
sg2
(g3
g4
(S'83.255.6.222'
p9933
I8444
tp9934
tp9935
Rp9936
I1420840717
sg2
(g3
g4
(S'91.240.112.10'
p9937
I47924
tp9938
tp9939
Rp9940
I1420817003
sg2
(g3
g4
(S'95.211.186.115'
p9941
I23120
tp9942
tp9943
Rp9944
I1420738078
sg2
(g3
g4
(S'5.44.107.23'
p9945
I8444
tp9946
tp9947
Rp9948
I1420830286
sg2
(g3
g4
(S'217.195.174.118'
p9949
I8444
tp9950
tp9951
Rp9952
I1420840343
sg2
(g3
g4
(S'94.242.239.176'
p9953
I8444
tp9954
tp9955
Rp9956
I1420832098
sg2
(g3
g4
(S'76.208.0.104'
p9957
I8444
tp9958
tp9959
Rp9960
I1420844513
sg2
(g3
g4
(S'184.75.223.226'
p9961
I8444
tp9962
tp9963
Rp9964
I1420758047
sg2
(g3
g4
(S'146.66.181.110'
p9965
I8444
tp9966
tp9967
Rp9968
I1420832826
sg2
(g3
g4
(S'188.40.23.90'
p9969
I8444
tp9970
tp9971
Rp9972
I1420842972
sg2
(g3
g4
(S'2a02:8070:6385:f300:a5ca:f6c9:9395:d9e0'
p9973
I8444
tp9974
tp9975
Rp9976
I1420840890
sg2
(g3
g4
(S'178.141.43.127'
p9977
I8444
tp9978
tp9979
Rp9980
I1420842738
sg2
(g3
g4
(S'2001:470:1f11:9e9:f66d:4ff:fe2c:ae1'
p9981
I8444
tp9982
tp9983
Rp9984
I1420837379
sg2
(g3
g4
(S'96.44.189.100'
p9985
I9002
tp9986
tp9987
Rp9988
I1420734473
sg2
(g3
g4
(S'83.134.172.199'
p9989
I8444
tp9990
tp9991
Rp9992
I1420731229
sg2
(g3
g4
(S'93.189.2.18'
p9993
I57261
tp9994
tp9995
Rp9996
I1421628952
sg2
(g3
g4
(S'83.179.13.38'
p9997
I8444
tp9998
tp9999
Rp10000
I1420838582
sg2
(g3
g4
(S'54.174.241.61'
p10001
I8444
tp10002
tp10003
Rp10004
I1420726561
sg2
(g3
g4
(S'183.171.185.41'
p10005
I8444
tp10006
tp10007
Rp10008
I1421620326
sg2
(g3
g4
(S'2001:0:9d38:90d7:2082:2f4f:9d3c:e863'
p10009
I8444
tp10010
tp10011
Rp10012
I1420830176
sg2
(g3
g4
(S'198.252.153.26'
p10013
I8444
tp10014
tp10015
Rp10016
I1420729135
sg2
(g3
g4
(S'173.234.123.36'
p10017
I8444
tp10018
tp10019
Rp10020
I1420834188
sg2
(g3
g4
(S'31.48.132.158'
p10021
I8444
tp10022
tp10023
Rp10024
I1421623654
sg2
(g3
g4
(S'106.39.222.32'
p10025
I8444
tp10026
tp10027
Rp10028
I1420839660
sg2
(g3
g4
(S'50.116.53.12'
p10029
I8444
tp10030
tp10031
Rp10032
I1420844349
sg2
(g3
g4
(S'188.54.103.174'
p10033
I8444
tp10034
tp10035
Rp10036
I1420735865
sg2
(g3
g4
(S'67.189.95.174'
p10037
I8444
tp10038
tp10039
Rp10040
I1420835503
sg2
(g3
g4
(S'79.141.164.13'
p10041
I8444
tp10042
tp10043
Rp10044
I1420730990
sg2
(g3
g4
(S'109.155.243.198'
p10045
I8444
tp10046
tp10047
Rp10048
I1420840407
sg2
(g3
g4
(S'134.94.229.233'
p10049
I8444
tp10050
tp10051
Rp10052
I1420736605
sg2
(g3
g4
(S'176.126.252.11'
p10053
I9150
tp10054
tp10055
Rp10056
I1420840372
sg2
(g3
g4
(S'123.3.101.222'
p10057
I8444
tp10058
tp10059
Rp10060
I1420765988
sg2
(g3
g4
(S'104.245.144.226'
p10061
I8444
tp10062
tp10063
Rp10064
I1421620739
sg2
(g3
g4
(S'91.14.208.245'
p10065
I8444
tp10066
tp10067
Rp10068
I1420735692
sg2
(g3
g4
(S'162.253.130.34'
p10069
I8444
tp10070
tp10071
Rp10072
I1420735266
sg2
(g3
g4
(S'201.177.12.221'
p10073
I8444
tp10074
tp10075
Rp10076
I1420841253
sg2
(g3
g4
(S'89.239.169.253'
p10077
I8444
tp10078
tp10079
Rp10080
I1420733648
sg2
(g3
g4
(S'184.75.212.34'
p10081
I8444
tp10082
tp10083
Rp10084
I1420737980
sg2
(g3
g4
(S'99.47.180.54'
p10085
I8444
tp10086
tp10087
Rp10088
I1420842875
sg2
(g3
g4
(S'94.242.239.171'
p10089
I8444
tp10090
tp10091
Rp10092
I1420823273
sg2
(g3
g4
(S'74.195.195.132'
p10093
I8444
tp10094
tp10095
Rp10096
I1421629228
sg2
(g3
g4
(S'37.59.162.218'
p10097
I8444
tp10098
tp10099
Rp10100
I1420737322
sg2
(g3
g4
(S'77.254.252.45'
p10101
I8444
tp10102
tp10103
Rp10104
I1421629947
sg2
(g3
g4
(S'217.249.32.46'
p10105
I8444
tp10106
tp10107
Rp10108
I1420835309
sg2
(g3
g4
(S'212.159.100.133'
p10109
I8621
tp10110
tp10111
Rp10112
I1421626985
sg2
(g3
g4
(S'83.134.7.80'
p10113
I8444
tp10114
tp10115
Rp10116
I1420836784
sg2
(g3
g4
(S'91.181.55.240'
p10117
I8444
tp10118
tp10119
Rp10120
I1420844340
sg2
(g3
g4
(S'2002:92e4:70fc::92e4:70fc'
p10121
I8448
tp10122
tp10123
Rp10124
I1420838015
sg2
(g3
g4
(S'165.123.151.208'
p10125
I8444
tp10126
tp10127
Rp10128
I1421630160
sg2
(g3
g4
(S'41.215.241.234'
p10129
I8444
tp10130
tp10131
Rp10132
I1420737413
sg2
(g3
g4
(S'93.38.126.70'
p10133
I8444
tp10134
tp10135
Rp10136
I1420826586
sg2
(g3
g4
(S'109.198.235.4'
p10137
I8444
tp10138
tp10139
Rp10140
I1420834263
sg2
(g3
g4
(S'162.253.128.167'
p10141
I8444
tp10142
tp10143
Rp10144
I1420821853
sg2
(g3
g4
(S'184.75.211.137'
p10145
I8444
tp10146
tp10147
Rp10148
I1420756015
sg2
(g3
g4
(S'62.204.110.198'
p10149
I8444
tp10150
tp10151
Rp10152
I1420826786
sg2
(g3
g4
(S'183.171.185.85'
p10153
I8444
tp10154
tp10155
Rp10156
I1420841432
sg2
(g3
g4
(S'175.106.54.183'
p10157
I8444
tp10158
tp10159
Rp10160
I1420731211
sg2
(g3
g4
(S'104.245.145.82'
p10161
I8444
tp10162
tp10163
Rp10164
I1420815255
sg2
(g3
g4
(S'77.7.30.154'
p10165
I8444
tp10166
tp10167
Rp10168
I1420824908
sg2
(g3
g4
(S'98.234.95.117'
p10169
I8444
tp10170
tp10171
Rp10172
I1420736096
sg2
(g3
g4
(S'106.39.255.232'
p10173
I8444
tp10174
tp10175
Rp10176
I1420823252
sg2
(g3
g4
(S'195.154.79.94'
p10177
I8444
tp10178
tp10179
Rp10180
I1420725411
sg2
(g3
g4
(S'178.219.245.214'
p10181
I8444
tp10182
tp10183
Rp10184
I1420837975
sg2
(g3
g4
(S'2001:0:9d38:6ab8:2c94:30af:252b:7a86'
p10185
I8444
tp10186
tp10187
Rp10188
I1420829146
sg2
(g3
g4
(S'217.23.2.183'
p10189
I8444
tp10190
tp10191
Rp10192
I1421621600
sg2
(g3
g4
(S'94.206.11.242'
p10193
I8444
tp10194
tp10195
Rp10196
I1421624713
sg2
(g3
g4
(S'184.75.211.153'
p10197
I8444
tp10198
tp10199
Rp10200
I1420830055
sg2
(g3
g4
(S'183.171.185.67'
p10201
I8444
tp10202
tp10203
Rp10204
I1420727748
sg2
(g3
g4
(S'93.189.2.18'
p10205
I57305
tp10206
tp10207
Rp10208
I1421619660
sg2
(g3
g4
(S'83.7.66.42'
p10209
I8444
tp10210
tp10211
Rp10212
I1420840468
sg2
(g3
g4
(S'2.88.79.102'
p10213
I8444
tp10214
tp10215
Rp10216
I1420833698
sg2
(g3
g4
(S'91.240.112.10'
p10217
I51545
tp10218
tp10219
Rp10220
I1420737211
sg2
(g3
g4
(S'23.240.149.17'
p10221
I8444
tp10222
tp10223
Rp10224
I1420840931
sg2
(g3
g4
(S'91.179.69.254'
p10225
I8444
tp10226
tp10227
Rp10228
I1420833547
sg2
(g3
g4
(S'67.221.255.97'
p10229
I8444
tp10230
tp10231
Rp10232
I1420834484
sg2
(g3
g4
(S'178.201.115.236'
p10233
I8444
tp10234
tp10235
Rp10236
I1420735340
sg2
(g3
g4
(S'95.130.11.147'
p10237
I8445
tp10238
tp10239
Rp10240
I1420844045
sg2
(g3
g4
(S'184.75.214.34'
p10241
I8444
tp10242
tp10243
Rp10244
I1420819247
sg2
(g3
g4
(S'178.93.12.66'
p10245
I8444
tp10246
tp10247
Rp10248
I1421623838
sg2
(g3
g4
(S'96.59.70.145'
p10249
I8444
tp10250
tp10251
Rp10252
I1421625783
sg2
(g3
g4
(S'107.223.197.0'
p10253
I8444
tp10254
tp10255
Rp10256
I1420826163
sg2
(g3
g4
(S'188.113.114.120'
p10257
I8444
tp10258
tp10259
Rp10260
I1420830848
sg2
(g3
g4
(S'190.92.77.13'
p10261
I8444
tp10262
tp10263
Rp10264
I1420731031
sg2
(g3
g4
(S'178.125.160.80'
p10265
I8444
tp10266
tp10267
Rp10268
I1420737809
sg2
(g3
g4
(S'109.42.2.200'
p10269
I8444
tp10270
tp10271
Rp10272
I1420733257
sg2
(g3
g4
(S'2a02:2f0a:305c:6b00:9e2:e0d8:eb2a:3b17'
p10273
I8444
tp10274
tp10275
Rp10276
I1420816370
sg2
(g3
g4
(S'188.138.90.139'
p10277
I8444
tp10278
tp10279
Rp10280
I1421627787
sg2
(g3
g4
(S'86.44.157.161'
p10281
I8444
tp10282
tp10283
Rp10284
I1420817497
sg2
(g3
g4
(S'91.97.106.150'
p10285
I80
tp10286
tp10287
Rp10288
I1420840576
sg2
(g3
g4
(S'2a01:7e00::f03c:91ff:fe73:9fcf'
p10289
I8444
tp10290
tp10291
Rp10292
I1420839518
sg2
(g3
g4
(S'87.150.172.117'
p10293
I8444
tp10294
tp10295
Rp10296
I1420836624
sg2
(g3
g4
(S'93.192.209.142'
p10297
I8444
tp10298
tp10299
Rp10300
I1420844285
sg2
(g3
g4
(S'93.87.135.195'
p10301
I8444
tp10302
tp10303
Rp10304
I1421621064
sg2
(g3
g4
(S'77.64.139.34'
p10305
I8444
tp10306
tp10307
Rp10308
I1421623184
sg2
(g3
g4
(S'27.145.203.74'
p10309
I8444
tp10310
tp10311
Rp10312
I1420756359
sg2
(g3
g4
(S'95.111.213.145'
p10313
I8444
tp10314
tp10315
Rp10316
I1420737028
sg2
(g3
g4
(S'213.24.132.239'
p10317
I8444
tp10318
tp10319
Rp10320
I1420736998
sg2
(g3
g4
(S'77.58.149.146'
p10321
I8444
tp10322
tp10323
Rp10324
I1420757844
sg2
(g3
g4
(S'85.197.19.80'
p10325
I8444
tp10326
tp10327
Rp10328
I1420818267
ssI2
(dp10329
sI3
(dp10330
s.